Archive member included to satisfy reference by file (symbol)

c:/program files/microchip/xc8/v2.31/avr/bin/../lib/gcc/avr/5.4.0/../../../../avr/lib/avrxmega3\libm.a(addsf3.o)
                              build/default/production/mcc_generated_files/application_manager.o (__subsf3)
c:/program files/microchip/xc8/v2.31/avr/bin/../lib/gcc/avr/5.4.0/../../../../avr/lib/avrxmega3\libm.a(addsf3x.o)
                              c:/program files/microchip/xc8/v2.31/avr/bin/../lib/gcc/avr/5.4.0/../../../../avr/lib/avrxmega3\libm.a(addsf3.o) (__addsf3x)
c:/program files/microchip/xc8/v2.31/avr/bin/../lib/gcc/avr/5.4.0/../../../../avr/lib/avrxmega3\libm.a(cmpsf2.o)
                              build/default/production/mcc_generated_files/application_manager.o (__ltsf2)
c:/program files/microchip/xc8/v2.31/avr/bin/../lib/gcc/avr/5.4.0/../../../../avr/lib/avrxmega3\libm.a(fixsfsi.o)
                              build/default/production/mcc_generated_files/application_manager.o (__fixsfsi)
c:/program files/microchip/xc8/v2.31/avr/bin/../lib/gcc/avr/5.4.0/../../../../avr/lib/avrxmega3\libm.a(fixunssfsi.o)
                              c:/program files/microchip/xc8/v2.31/avr/bin/../lib/gcc/avr/5.4.0/../../../../avr/lib/avrxmega3\libm.a(fixsfsi.o) (__fixunssfsi)
c:/program files/microchip/xc8/v2.31/avr/bin/../lib/gcc/avr/5.4.0/../../../../avr/lib/avrxmega3\libm.a(floatsisf.o)
                              build/default/production/mcc_generated_files/application_manager.o (__floatsisf)
c:/program files/microchip/xc8/v2.31/avr/bin/../lib/gcc/avr/5.4.0/../../../../avr/lib/avrxmega3\libm.a(fp_cmp.o)
                              c:/program files/microchip/xc8/v2.31/avr/bin/../lib/gcc/avr/5.4.0/../../../../avr/lib/avrxmega3\libm.a(cmpsf2.o) (__fp_cmp)
c:/program files/microchip/xc8/v2.31/avr/bin/../lib/gcc/avr/5.4.0/../../../../avr/lib/avrxmega3\libm.a(fp_inf.o)
                              c:/program files/microchip/xc8/v2.31/avr/bin/../lib/gcc/avr/5.4.0/../../../../avr/lib/avrxmega3\libm.a(addsf3x.o) (__fp_inf)
c:/program files/microchip/xc8/v2.31/avr/bin/../lib/gcc/avr/5.4.0/../../../../avr/lib/avrxmega3\libm.a(fp_nan.o)
                              c:/program files/microchip/xc8/v2.31/avr/bin/../lib/gcc/avr/5.4.0/../../../../avr/lib/avrxmega3\libm.a(addsf3x.o) (__fp_nan)
c:/program files/microchip/xc8/v2.31/avr/bin/../lib/gcc/avr/5.4.0/../../../../avr/lib/avrxmega3\libm.a(fp_pscA.o)
                              c:/program files/microchip/xc8/v2.31/avr/bin/../lib/gcc/avr/5.4.0/../../../../avr/lib/avrxmega3\libm.a(addsf3x.o) (__fp_pscA)
c:/program files/microchip/xc8/v2.31/avr/bin/../lib/gcc/avr/5.4.0/../../../../avr/lib/avrxmega3\libm.a(fp_pscB.o)
                              c:/program files/microchip/xc8/v2.31/avr/bin/../lib/gcc/avr/5.4.0/../../../../avr/lib/avrxmega3\libm.a(addsf3x.o) (__fp_pscB)
c:/program files/microchip/xc8/v2.31/avr/bin/../lib/gcc/avr/5.4.0/../../../../avr/lib/avrxmega3\libm.a(fp_round.o)
                              c:/program files/microchip/xc8/v2.31/avr/bin/../lib/gcc/avr/5.4.0/../../../../avr/lib/avrxmega3\libm.a(addsf3.o) (__fp_round)
c:/program files/microchip/xc8/v2.31/avr/bin/../lib/gcc/avr/5.4.0/../../../../avr/lib/avrxmega3\libm.a(fp_split3.o)
                              c:/program files/microchip/xc8/v2.31/avr/bin/../lib/gcc/avr/5.4.0/../../../../avr/lib/avrxmega3\libm.a(addsf3x.o) (__fp_split3)
c:/program files/microchip/xc8/v2.31/avr/bin/../lib/gcc/avr/5.4.0/../../../../avr/lib/avrxmega3\libm.a(fp_zero.o)
                              c:/program files/microchip/xc8/v2.31/avr/bin/../lib/gcc/avr/5.4.0/../../../../avr/lib/avrxmega3\libm.a(addsf3x.o) (__fp_zero)
c:/program files/microchip/xc8/v2.31/avr/bin/../lib/gcc/avr/5.4.0/../../../../avr/lib/avrxmega3\libm.a(gesf2.o)
                              build/default/production/mcc_generated_files/application_manager.o (__gesf2)
c:/program files/microchip/xc8/v2.31/avr/bin/../lib/gcc/avr/5.4.0/../../../../avr/lib/avrxmega3\libm.a(mulsf3.o)
                              build/default/production/mcc_generated_files/application_manager.o (__mulsf3)
c:/program files/microchip/xc8/v2.31/avr/bin/../lib/gcc/avr/5.4.0/../../../../avr/lib/avrxmega3\libm.a(mulsf3x.o)
                              c:/program files/microchip/xc8/v2.31/avr/bin/../lib/gcc/avr/5.4.0/../../../../avr/lib/avrxmega3\libm.a(mulsf3.o) (__mulsf3x)
c:/program files/microchip/xc8/v2.31/avr/bin/../lib/gcc/avr/5.4.0/avrxmega3\libgcc.a(_udivmodhi4.o)
                              build/default/production/mcc_generated_files/CryptoAuthenticationLibrary/atcacert/atcacert_def.o (__udivmodhi4)
c:/program files/microchip/xc8/v2.31/avr/bin/../lib/gcc/avr/5.4.0/avrxmega3\libgcc.a(_divmodhi4.o)
                              build/default/production/mcc_generated_files/CryptoAuthenticationLibrary/atcacert/atcacert_date.o (__divmodhi4)
c:/program files/microchip/xc8/v2.31/avr/bin/../lib/gcc/avr/5.4.0/avrxmega3\libgcc.a(_udivmodsi4.o)
                              build/default/production/mcc_generated_files/CryptoAuthenticationLibrary/atcacert/atcacert_date.o (__udivmodsi4)
c:/program files/microchip/xc8/v2.31/avr/bin/../lib/gcc/avr/5.4.0/avrxmega3\libgcc.a(_divmodsi4.o)
                              build/default/production/mcc_generated_files/application_manager.o (__divmodsi4)
c:/program files/microchip/xc8/v2.31/avr/bin/../lib/gcc/avr/5.4.0/avrxmega3\libgcc.a(_negsi2.o)
                              c:/program files/microchip/xc8/v2.31/avr/bin/../lib/gcc/avr/5.4.0/avrxmega3\libgcc.a(_divmodsi4.o) (__negsi2)
c:/program files/microchip/xc8/v2.31/avr/bin/../lib/gcc/avr/5.4.0/avrxmega3\libgcc.a(_exit.o)
                              C:/Program Files/Microchip/MPLABX/v5.45/packs/Microchip/ATmega_DFP/2.2.108/xc8/avr/lib/avrxmega3/crtatmega4808.o (exit)
c:/program files/microchip/xc8/v2.31/avr/bin/../lib/gcc/avr/5.4.0/avrxmega3\libgcc.a(_tablejump2.o)
                              build/default/production/mcc_generated_files/CryptoAuthenticationLibrary/atcacert/atcacert_def.o (__tablejump2__)
c:/program files/microchip/xc8/v2.31/avr/bin/../lib/gcc/avr/5.4.0/avrxmega3\libgcc.a(_copy_data.o)
                              build/default/production/mcc_generated_files/cli/cli.o (__do_copy_data)
c:/program files/microchip/xc8/v2.31/avr/bin/../lib/gcc/avr/5.4.0/avrxmega3\libgcc.a(_umulhisi3.o)
                              build/default/production/mcc_generated_files/CryptoAuthenticationLibrary/basic/atca_helpers.o (__umulhisi3)
c:/program files/microchip/xc8/v2.31/avr/bin/../lib/gcc/avr/5.4.0/avrxmega3\libgcc.a(_usmulhisi3.o)
                              build/default/production/mcc_generated_files/CryptoAuthenticationLibrary/atcacert/atcacert_date.o (__usmulhisi3)
c:/program files/microchip/xc8/v2.31/avr/bin/../lib/gcc/avr/5.4.0/avrxmega3\libgcc.a(_muluhisi3.o)
                              build/default/production/mcc_generated_files/CryptoAuthenticationLibrary/atcacert/atcacert_date.o (__muluhisi3)
c:/program files/microchip/xc8/v2.31/avr/bin/../lib/gcc/avr/5.4.0/avrxmega3\libgcc.a(_mulshisi3.o)
                              build/default/production/mcc_generated_files/CryptoAuthenticationLibrary/atcacert/atcacert_date.o (__mulshisi3)
c:/program files/microchip/xc8/v2.31/avr/bin/../lib/gcc/avr/5.4.0/avrxmega3\libgcc.a(_ashldi3.o)
                              build/default/production/mcc_generated_files/CryptoAuthenticationLibrary/basic/atca_basic_aes_gcm.o (__ashldi3)
c:/program files/microchip/xc8/v2.31/avr/bin/../lib/gcc/avr/5.4.0/avrxmega3\libgcc.a(_ashrdi3.o)
                              build/default/production/mcc_generated_files/CryptoAuthenticationLibrary/basic/atca_basic_aes_gcm.o (__lshrdi3)
c:/program files/microchip/xc8/v2.31/avr/bin/../lib/gcc/avr/5.4.0/../../../../avr/lib/avrxmega3\libc.a(atoi_M.o)
                              build/default/production/mcc_generated_files/cli/cli.o (atoi)
c:/program files/microchip/xc8/v2.31/avr/bin/../lib/gcc/avr/5.4.0/../../../../avr/lib/avrxmega3\libc.a(atol.o)
                              c:/program files/microchip/xc8/v2.31/avr/bin/../lib/gcc/avr/5.4.0/../../../../avr/lib/avrxmega3\libc.a(atoi_M.o) (atol)
c:/program files/microchip/xc8/v2.31/avr/bin/../lib/gcc/avr/5.4.0/../../../../avr/lib/avrxmega3\libc.a(tolower.o)
                              build/default/production/mcc_generated_files/CryptoAuthenticationLibrary/basic/atca_helpers.o (tolower)
c:/program files/microchip/xc8/v2.31/avr/bin/../lib/gcc/avr/5.4.0/../../../../avr/lib/avrxmega3\libc.a(toupper.o)
                              build/default/production/mcc_generated_files/CryptoAuthenticationLibrary/basic/atca_helpers.o (toupper)
c:/program files/microchip/xc8/v2.31/avr/bin/../lib/gcc/avr/5.4.0/../../../../avr/lib/avrxmega3\libc.a(strtok.o)
                              build/default/production/mcc_generated_files/cli/cli.o (strtok)
c:/program files/microchip/xc8/v2.31/avr/bin/../lib/gcc/avr/5.4.0/../../../../avr/lib/avrxmega3\libc.a(memcmp.o)
                              build/default/production/mcc_generated_files/cloud/mqtt_service.o (memcmp)
c:/program files/microchip/xc8/v2.31/avr/bin/../lib/gcc/avr/5.4.0/../../../../avr/lib/avrxmega3\libc.a(memcpy.o)
                              build/default/production/mcc_generated_files/CryptoAuthenticationLibrary/atcacert/atcacert_pem.o (memcpy)
c:/program files/microchip/xc8/v2.31/avr/bin/../lib/gcc/avr/5.4.0/../../../../avr/lib/avrxmega3\libc.a(memmove.o)
                              build/default/production/mcc_generated_files/CryptoAuthenticationLibrary/atcacert/atcacert_client.o (memmove)
c:/program files/microchip/xc8/v2.31/avr/bin/../lib/gcc/avr/5.4.0/../../../../avr/lib/avrxmega3\libc.a(memset.o)
                              build/default/production/mcc_generated_files/CryptoAuthenticationLibrary/atcacert/atcacert_def.o (memset)
c:/program files/microchip/xc8/v2.31/avr/bin/../lib/gcc/avr/5.4.0/../../../../avr/lib/avrxmega3\libc.a(strchr.o)
                              build/default/production/mcc_generated_files/cli/cli.o (strchr)
c:/program files/microchip/xc8/v2.31/avr/bin/../lib/gcc/avr/5.4.0/../../../../avr/lib/avrxmega3\libc.a(strcmp.o)
                              build/default/production/mcc_generated_files/cli/cli.o (strcmp)
c:/program files/microchip/xc8/v2.31/avr/bin/../lib/gcc/avr/5.4.0/../../../../avr/lib/avrxmega3\libc.a(strcpy.o)
                              build/default/production/mcc_generated_files/cloud/wifi_service.o (strcpy)
c:/program files/microchip/xc8/v2.31/avr/bin/../lib/gcc/avr/5.4.0/../../../../avr/lib/avrxmega3\libc.a(strncmp.o)
                              build/default/production/mcc_generated_files/cloud/wifi_service.o (strncmp)
c:/program files/microchip/xc8/v2.31/avr/bin/../lib/gcc/avr/5.4.0/../../../../avr/lib/avrxmega3\libc.a(strncpy.o)
                              build/default/production/mcc_generated_files/cli/cli.o (strncpy)
c:/program files/microchip/xc8/v2.31/avr/bin/../lib/gcc/avr/5.4.0/../../../../avr/lib/avrxmega3\libc.a(strstr.o)
                              build/default/production/mcc_generated_files/CryptoAuthenticationLibrary/atcacert/atcacert_pem.o (strstr)
c:/program files/microchip/xc8/v2.31/avr/bin/../lib/gcc/avr/5.4.0/../../../../avr/lib/avrxmega3\libc.a(strtok_r.o)
                              c:/program files/microchip/xc8/v2.31/avr/bin/../lib/gcc/avr/5.4.0/../../../../avr/lib/avrxmega3\libc.a(strtok.o) (strtok_r)
c:/program files/microchip/xc8/v2.31/avr/bin/../lib/gcc/avr/5.4.0/../../../../avr/lib/avrxmega3\libc.a(mulsi10.o)
                              c:/program files/microchip/xc8/v2.31/avr/bin/../lib/gcc/avr/5.4.0/../../../../avr/lib/avrxmega3\libc.a(atol.o) (__mulsi_const_10)
c:/program files/microchip/xc8/v2.31/avr/bin/../lib/gcc/avr/5.4.0/../../../../avr/lib/avrxmega3\libc.a(iob.o)
                              build/default/production/mcc_generated_files/src/usart2.o (__iob)
c:/program files/microchip/xc8/v2.31/avr/bin/../lib/gcc/avr/5.4.0/../../../../avr/lib/avrxmega3\libc.a(printf.o)
                              build/default/production/mcc_generated_files/cli/cli.o (printf)
c:/program files/microchip/xc8/v2.31/avr/bin/../lib/gcc/avr/5.4.0/../../../../avr/lib/avrxmega3\libc.a(puts.o)
                              build/default/production/mcc_generated_files/cli/cli.o (puts)
c:/program files/microchip/xc8/v2.31/avr/bin/../lib/gcc/avr/5.4.0/../../../../avr/lib/avrxmega3\libc.a(snprintf.o)
                              build/default/production/mcc_generated_files/CryptoAuthenticationLibrary/jwt/atca_jwt.o (snprintf)
c:/program files/microchip/xc8/v2.31/avr/bin/../lib/gcc/avr/5.4.0/../../../../avr/lib/avrxmega3\libc.a(sprintf.o)
                              build/default/production/mcc_generated_files/cli/cli.o (sprintf)
c:/program files/microchip/xc8/v2.31/avr/bin/../lib/gcc/avr/5.4.0/../../../../avr/lib/avrxmega3\libc.a(vprintf.o)
                              build/default/production/mcc_generated_files/debug_print.o (vprintf)
c:/program files/microchip/xc8/v2.31/avr/bin/../lib/gcc/avr/5.4.0/../../../../avr/lib/avrxmega3\libc.a(ctime.o)
                              build/default/production/mcc_generated_files/time_service.o (ctime)
c:/program files/microchip/xc8/v2.31/avr/bin/../lib/gcc/avr/5.4.0/../../../../avr/lib/avrxmega3\libc.a(difftime.o)
                              build/default/production/mcc_generated_files/time_service.o (difftime)
c:/program files/microchip/xc8/v2.31/avr/bin/../lib/gcc/avr/5.4.0/../../../../avr/lib/avrxmega3\libc.a(localtime_r.o)
                              c:/program files/microchip/xc8/v2.31/avr/bin/../lib/gcc/avr/5.4.0/../../../../avr/lib/avrxmega3\libc.a(ctime.o) (localtime_r)
c:/program files/microchip/xc8/v2.31/avr/bin/../lib/gcc/avr/5.4.0/../../../../avr/lib/avrxmega3\libc.a(mktime.o)
                              build/default/production/mcc_generated_files/time_service.o (mktime)
c:/program files/microchip/xc8/v2.31/avr/bin/../lib/gcc/avr/5.4.0/../../../../avr/lib/avrxmega3\libc.a(set_system_time.o)
                              build/default/production/mcc_generated_files/time_service.o (set_system_time)
c:/program files/microchip/xc8/v2.31/avr/bin/../lib/gcc/avr/5.4.0/../../../../avr/lib/avrxmega3\libc.a(system_time.o)
                              c:/program files/microchip/xc8/v2.31/avr/bin/../lib/gcc/avr/5.4.0/../../../../avr/lib/avrxmega3\libc.a(set_system_time.o) (__system_time)
c:/program files/microchip/xc8/v2.31/avr/bin/../lib/gcc/avr/5.4.0/../../../../avr/lib/avrxmega3\libc.a(utc_offset.o)
                              c:/program files/microchip/xc8/v2.31/avr/bin/../lib/gcc/avr/5.4.0/../../../../avr/lib/avrxmega3\libc.a(localtime_r.o) (__utc_offset)
c:/program files/microchip/xc8/v2.31/avr/bin/../lib/gcc/avr/5.4.0/../../../../avr/lib/avrxmega3\libc.a(vfprintf_std.o)
                              c:/program files/microchip/xc8/v2.31/avr/bin/../lib/gcc/avr/5.4.0/../../../../avr/lib/avrxmega3\libc.a(printf.o) (vfprintf)
c:/program files/microchip/xc8/v2.31/avr/bin/../lib/gcc/avr/5.4.0/../../../../avr/lib/avrxmega3\libc.a(strnlen_P.o)
                              c:/program files/microchip/xc8/v2.31/avr/bin/../lib/gcc/avr/5.4.0/../../../../avr/lib/avrxmega3\libc.a(vfprintf_std.o) (strnlen_P)
c:/program files/microchip/xc8/v2.31/avr/bin/../lib/gcc/avr/5.4.0/../../../../avr/lib/avrxmega3\libc.a(strnlen.o)
                              c:/program files/microchip/xc8/v2.31/avr/bin/../lib/gcc/avr/5.4.0/../../../../avr/lib/avrxmega3\libc.a(vfprintf_std.o) (strnlen)
c:/program files/microchip/xc8/v2.31/avr/bin/../lib/gcc/avr/5.4.0/../../../../avr/lib/avrxmega3\libc.a(fputc.o)
                              c:/program files/microchip/xc8/v2.31/avr/bin/../lib/gcc/avr/5.4.0/../../../../avr/lib/avrxmega3\libc.a(vfprintf_std.o) (fputc)
c:/program files/microchip/xc8/v2.31/avr/bin/../lib/gcc/avr/5.4.0/../../../../avr/lib/avrxmega3\libc.a(ultoa_invert.o)
                              c:/program files/microchip/xc8/v2.31/avr/bin/../lib/gcc/avr/5.4.0/../../../../avr/lib/avrxmega3\libc.a(vfprintf_std.o) (__ultoa_invert)
c:/program files/microchip/xc8/v2.31/avr/bin/../lib/gcc/avr/5.4.0/../../../../avr/lib/avrxmega3\libc.a(asc_store.o)
                              c:/program files/microchip/xc8/v2.31/avr/bin/../lib/gcc/avr/5.4.0/../../../../avr/lib/avrxmega3\libc.a(ctime.o) (__asc_store)
c:/program files/microchip/xc8/v2.31/avr/bin/../lib/gcc/avr/5.4.0/../../../../avr/lib/avrxmega3\libc.a(asctime_r.o)
                              c:/program files/microchip/xc8/v2.31/avr/bin/../lib/gcc/avr/5.4.0/../../../../avr/lib/avrxmega3\libc.a(ctime.o) (asctime_r)
c:/program files/microchip/xc8/v2.31/avr/bin/../lib/gcc/avr/5.4.0/../../../../avr/lib/avrxmega3\libc.a(dst_pointer.o)
                              c:/program files/microchip/xc8/v2.31/avr/bin/../lib/gcc/avr/5.4.0/../../../../avr/lib/avrxmega3\libc.a(localtime_r.o) (__dst_ptr)
c:/program files/microchip/xc8/v2.31/avr/bin/../lib/gcc/avr/5.4.0/../../../../avr/lib/avrxmega3\libc.a(gmtime_r.o)
                              c:/program files/microchip/xc8/v2.31/avr/bin/../lib/gcc/avr/5.4.0/../../../../avr/lib/avrxmega3\libc.a(localtime_r.o) (gmtime_r)
c:/program files/microchip/xc8/v2.31/avr/bin/../lib/gcc/avr/5.4.0/../../../../avr/lib/avrxmega3\libc.a(mk_gmtime.o)
                              c:/program files/microchip/xc8/v2.31/avr/bin/../lib/gcc/avr/5.4.0/../../../../avr/lib/avrxmega3\libc.a(mktime.o) (mk_gmtime)
c:/program files/microchip/xc8/v2.31/avr/bin/../lib/gcc/avr/5.4.0/../../../../avr/lib/avrxmega3\libc.a(print_lz.o)
                              c:/program files/microchip/xc8/v2.31/avr/bin/../lib/gcc/avr/5.4.0/../../../../avr/lib/avrxmega3\libc.a(asctime_r.o) (__print_lz)
c:/program files/microchip/xc8/v2.31/avr/bin/../lib/gcc/avr/5.4.0/../../../../avr/lib/avrxmega3\libc.a(isLeap.o)
                              c:/program files/microchip/xc8/v2.31/avr/bin/../lib/gcc/avr/5.4.0/../../../../avr/lib/avrxmega3\libc.a(mk_gmtime.o) (is_leap_year)
c:/program files/microchip/xc8/v2.31/avr/bin/../lib/gcc/avr/5.4.0/avrxmega3\libgcc.a(_mulsi3.o)
                              c:/program files/microchip/xc8/v2.31/avr/bin/../lib/gcc/avr/5.4.0/../../../../avr/lib/avrxmega3\libc.a(mk_gmtime.o) (__mulsi3)
c:/program files/microchip/xc8/v2.31/avr/bin/../lib/gcc/avr/5.4.0/avrxmega3\libgcc.a(_prologue.o)
                              c:/program files/microchip/xc8/v2.31/avr/bin/../lib/gcc/avr/5.4.0/../../../../avr/lib/avrxmega3\libc.a(printf.o) (__prologue_saves__)
c:/program files/microchip/xc8/v2.31/avr/bin/../lib/gcc/avr/5.4.0/avrxmega3\libgcc.a(_epilogue.o)
                              c:/program files/microchip/xc8/v2.31/avr/bin/../lib/gcc/avr/5.4.0/../../../../avr/lib/avrxmega3\libc.a(printf.o) (__epilogue_restores__)

Allocating common symbols
Common symbol       size              file

ssid                0x21              build/default/production/mcc_generated_files/credentials_storage/credentials_storage.o
g_atcab_device      0x4               build/default/production/mcc_generated_files/CryptoAuthenticationLibrary/basic/atca_basic.o
mqttSubscribeTopic  0x64              build/default/production/mcc_generated_files/application_manager.o
__store             0x1a              c:/program files/microchip/xc8/v2.31/avr/bin/../lib/gcc/avr/5.4.0/../../../../avr/lib/avrxmega3\libc.a(asc_store.o)
retValCryptoClientSerialNumber
                    0x1               build/default/production/mcc_generated_files/application_manager.o
pass                0x41              build/default/production/mcc_generated_files/credentials_storage/credentials_storage.o
ntpServerName       0x14              build/default/production/mcc_generated_files/credentials_storage/credentials_storage.o
_gmyIface           0x13              build/default/production/mcc_generated_files/CryptoAuth_init.o
cloudStatus         0x1               build/default/production/mcc_generated_files/cloud/cloud_service.o
awsEndpoint         0x34              build/default/production/mcc_generated_files/cloud/mqtt_service.o
publishRecvCallback
                    0x2               build/default/production/mcc_generated_files/mqtt/mqtt_packetTransfer_interface.o
imqtt_publishReceiveCallBackTable
                    0x4               build/default/production/mcc_generated_files/cloud/aws_cloud_service.o
buffer              0x400             build/default/production/mcc_generated_files/application_manager.o
_gmyCommand         0x4               build/default/production/mcc_generated_files/CryptoAuth_init.o
__dst_ptr           0x2               c:/program files/microchip/xc8/v2.31/avr/bin/../lib/gcc/avr/5.4.0/../../../../avr/lib/avrxmega3\libc.a(dst_pointer.o)
authType            0x2               build/default/production/mcc_generated_files/credentials_storage/credentials_storage.o
mqttBrokerIP        0x4               build/default/production/mcc_generated_files/cloud/cloud_service.o
g_atcab_iface       0x13              build/default/production/mcc_generated_files/CryptoAuthenticationLibrary/basic/atca_basic.o
callback_funcPtr    0x2               build/default/production/mcc_generated_files/cloud/wifi_service.o
__utc_offset        0x4               c:/program files/microchip/xc8/v2.31/avr/bin/../lib/gcc/avr/5.4.0/../../../../avr/lib/avrxmega3\libc.a(utc_offset.o)
shared_networking_params
                    0x1               build/default/production/mcc_generated_files/cloud/cloud_service.o
dummy               0xa               build/default/production/mcc_generated_files/drivers/timeout.o
cloud_packetReceiveCallBackTable
                    0xa               build/default/production/mcc_generated_files/cloud/cloud_service.o
g_atcab_command     0x4               build/default/production/mcc_generated_files/CryptoAuthenticationLibrary/basic/atca_basic.o
__iob               0x6               c:/program files/microchip/xc8/v2.31/avr/bin/../lib/gcc/avr/5.4.0/../../../../avr/lib/avrxmega3\libc.a(iob.o)
__system_time       0x4               c:/program files/microchip/xc8/v2.31/avr/bin/../lib/gcc/avr/5.4.0/../../../../avr/lib/avrxmega3\libc.a(system_time.o)
g_serial_number     0x9               build/default/production/mcc_generated_files/cloud/crypto_client/crypto_client.o
cid                 0x29              build/default/production/mcc_generated_files/cloud/mqtt_service.o

Discarded input sections

 .data          0x0000000000000000        0x0 C:/Program Files/Microchip/MPLABX/v5.45/packs/Microchip/ATmega_DFP/2.2.108/xc8/avr/lib/avrxmega3/crtatmega4808.o
 .bss           0x0000000000000000        0x0 C:/Program Files/Microchip/MPLABX/v5.45/packs/Microchip/ATmega_DFP/2.2.108/xc8/avr/lib/avrxmega3/crtatmega4808.o
 .text          0x0000000000000000        0x0 build/default/production/mcc_generated_files/cli/cli.o
 .data          0x0000000000000000        0x0 build/default/production/mcc_generated_files/cli/cli.o
 .bss           0x0000000000000000        0x0 build/default/production/mcc_generated_files/cli/cli.o
 .rodata.firmware_version_number
                0x0000000000000000        0x2 build/default/production/mcc_generated_files/cli/cli.o
 .rodata.cli_version_number
                0x0000000000000000        0x2 build/default/production/mcc_generated_files/cli/cli.o
 .text          0x0000000000000000        0x0 build/default/production/mcc_generated_files/cloud/crypto_client/crypto_client.o
 .data          0x0000000000000000        0x0 build/default/production/mcc_generated_files/cloud/crypto_client/crypto_client.o
 .bss           0x0000000000000000        0x0 build/default/production/mcc_generated_files/cloud/crypto_client/crypto_client.o
 .text.CRYPTO_CLIENT_printPublicKey
                0x0000000000000000       0xca build/default/production/mcc_generated_files/cloud/crypto_client/crypto_client.o
 .rodata.public_key_x509_header
                0x0000000000000000       0x1b build/default/production/mcc_generated_files/cloud/crypto_client/crypto_client.o
 .text          0x0000000000000000        0x0 build/default/production/mcc_generated_files/cloud/cloud_service.o
 .data          0x0000000000000000        0x0 build/default/production/mcc_generated_files/cloud/cloud_service.o
 .bss           0x0000000000000000        0x0 build/default/production/mcc_generated_files/cloud/cloud_service.o
 .text          0x0000000000000000        0x0 build/default/production/mcc_generated_files/cloud/wifi_service.o
 .data          0x0000000000000000        0x0 build/default/production/mcc_generated_files/cloud/wifi_service.o
 .bss           0x0000000000000000        0x0 build/default/production/mcc_generated_files/cloud/wifi_service.o
 .text          0x0000000000000000        0x0 build/default/production/mcc_generated_files/cloud/mqtt_service.o
 .data          0x0000000000000000        0x0 build/default/production/mcc_generated_files/cloud/mqtt_service.o
 .bss           0x0000000000000000        0x0 build/default/production/mcc_generated_files/cloud/mqtt_service.o
 .text.MQTT_GetPublishReceptionHandlerTable
                0x0000000000000000        0xa build/default/production/mcc_generated_files/cloud/mqtt_service.o
 .text          0x0000000000000000        0x0 build/default/production/mcc_generated_files/cloud/aws_cloud_service.o
 .data          0x0000000000000000        0x0 build/default/production/mcc_generated_files/cloud/aws_cloud_service.o
 .bss           0x0000000000000000        0x0 build/default/production/mcc_generated_files/cloud/aws_cloud_service.o
 .text          0x0000000000000000        0x0 build/default/production/mcc_generated_files/credentials_storage/credentials_storage.o
 .data          0x0000000000000000        0x0 build/default/production/mcc_generated_files/credentials_storage/credentials_storage.o
 .bss           0x0000000000000000        0x0 build/default/production/mcc_generated_files/credentials_storage/credentials_storage.o
 .text          0x0000000000000000        0x0 build/default/production/mcc_generated_files/CryptoAuthenticationLibrary/atcacert/atcacert_host_sw.o
 .data          0x0000000000000000        0x0 build/default/production/mcc_generated_files/CryptoAuthenticationLibrary/atcacert/atcacert_host_sw.o
 .bss           0x0000000000000000        0x0 build/default/production/mcc_generated_files/CryptoAuthenticationLibrary/atcacert/atcacert_host_sw.o
 .text.atcacert_verify_cert_sw
                0x0000000000000000       0x9a build/default/production/mcc_generated_files/CryptoAuthenticationLibrary/atcacert/atcacert_host_sw.o
 .text.atcacert_gen_challenge_sw
                0x0000000000000000       0x14 build/default/production/mcc_generated_files/CryptoAuthenticationLibrary/atcacert/atcacert_host_sw.o
 .text.atcacert_verify_response_sw
                0x0000000000000000       0x32 build/default/production/mcc_generated_files/CryptoAuthenticationLibrary/atcacert/atcacert_host_sw.o
 .debug_info    0x0000000000000000      0xc8f build/default/production/mcc_generated_files/CryptoAuthenticationLibrary/atcacert/atcacert_host_sw.o
 .debug_abbrev  0x0000000000000000      0x128 build/default/production/mcc_generated_files/CryptoAuthenticationLibrary/atcacert/atcacert_host_sw.o
 .debug_loc     0x0000000000000000      0x2f4 build/default/production/mcc_generated_files/CryptoAuthenticationLibrary/atcacert/atcacert_host_sw.o
 .debug_aranges
                0x0000000000000000       0x30 build/default/production/mcc_generated_files/CryptoAuthenticationLibrary/atcacert/atcacert_host_sw.o
 .debug_ranges  0x0000000000000000       0x20 build/default/production/mcc_generated_files/CryptoAuthenticationLibrary/atcacert/atcacert_host_sw.o
 .debug_line    0x0000000000000000      0x246 build/default/production/mcc_generated_files/CryptoAuthenticationLibrary/atcacert/atcacert_host_sw.o
 .debug_str     0x0000000000000000       0x64 build/default/production/mcc_generated_files/CryptoAuthenticationLibrary/atcacert/atcacert_host_sw.o
 .comment       0x0000000000000000       0x30 build/default/production/mcc_generated_files/CryptoAuthenticationLibrary/atcacert/atcacert_host_sw.o
 .debug_frame   0x0000000000000000       0x7c build/default/production/mcc_generated_files/CryptoAuthenticationLibrary/atcacert/atcacert_host_sw.o
 .text          0x0000000000000000        0x0 build/default/production/mcc_generated_files/CryptoAuthenticationLibrary/atcacert/atcacert_date.o
 .data          0x0000000000000000        0x0 build/default/production/mcc_generated_files/CryptoAuthenticationLibrary/atcacert/atcacert_date.o
 .bss           0x0000000000000000        0x0 build/default/production/mcc_generated_files/CryptoAuthenticationLibrary/atcacert/atcacert_date.o
 .text.uint_to_str
                0x0000000000000000       0x78 build/default/production/mcc_generated_files/CryptoAuthenticationLibrary/atcacert/atcacert_date.o
 .text.str_to_int
                0x0000000000000000      0x14c build/default/production/mcc_generated_files/CryptoAuthenticationLibrary/atcacert/atcacert_date.o
 .text.is_leap_year
                0x0000000000000000       0x3e build/default/production/mcc_generated_files/CryptoAuthenticationLibrary/atcacert/atcacert_date.o
 .text.atcacert_date_enc_posix_uint32
                0x0000000000000000      0x2ca build/default/production/mcc_generated_files/CryptoAuthenticationLibrary/atcacert/atcacert_date.o
 .text.atcacert_gmtime32
                0x0000000000000000      0x1dc build/default/production/mcc_generated_files/CryptoAuthenticationLibrary/atcacert/atcacert_date.o
 .text.atcacert_date_get_max_date
                0x0000000000000000      0x14c build/default/production/mcc_generated_files/CryptoAuthenticationLibrary/atcacert/atcacert_date.o
 .text.atcacert_date_enc_iso8601_sep
                0x0000000000000000      0x148 build/default/production/mcc_generated_files/CryptoAuthenticationLibrary/atcacert/atcacert_date.o
 .text.atcacert_date_dec_iso8601_sep
                0x0000000000000000      0x174 build/default/production/mcc_generated_files/CryptoAuthenticationLibrary/atcacert/atcacert_date.o
 .text.atcacert_date_enc_rfc5280_utc
                0x0000000000000000      0x122 build/default/production/mcc_generated_files/CryptoAuthenticationLibrary/atcacert/atcacert_date.o
 .text.atcacert_date_dec_rfc5280_utc
                0x0000000000000000      0x132 build/default/production/mcc_generated_files/CryptoAuthenticationLibrary/atcacert/atcacert_date.o
 .text.atcacert_date_enc_rfc5280_gen
                0x0000000000000000      0x114 build/default/production/mcc_generated_files/CryptoAuthenticationLibrary/atcacert/atcacert_date.o
 .text.atcacert_date_dec_rfc5280_gen
                0x0000000000000000      0x116 build/default/production/mcc_generated_files/CryptoAuthenticationLibrary/atcacert/atcacert_date.o
 .text.atcacert_date_enc_posix_uint32_be
                0x0000000000000000       0x60 build/default/production/mcc_generated_files/CryptoAuthenticationLibrary/atcacert/atcacert_date.o
 .text.atcacert_date_dec_posix_uint32_be
                0x0000000000000000       0x5e build/default/production/mcc_generated_files/CryptoAuthenticationLibrary/atcacert/atcacert_date.o
 .text.atcacert_date_enc_posix_uint32_le
                0x0000000000000000       0x60 build/default/production/mcc_generated_files/CryptoAuthenticationLibrary/atcacert/atcacert_date.o
 .text.atcacert_date_enc
                0x0000000000000000       0xd0 build/default/production/mcc_generated_files/CryptoAuthenticationLibrary/atcacert/atcacert_date.o
 .text.atcacert_date_dec_posix_uint32_le
                0x0000000000000000       0x5e build/default/production/mcc_generated_files/CryptoAuthenticationLibrary/atcacert/atcacert_date.o
 .text.atcacert_date_dec
                0x0000000000000000       0x94 build/default/production/mcc_generated_files/CryptoAuthenticationLibrary/atcacert/atcacert_date.o
 .text.atcacert_date_enc_compcert
                0x0000000000000000      0x13a build/default/production/mcc_generated_files/CryptoAuthenticationLibrary/atcacert/atcacert_date.o
 .text.atcacert_date_dec_compcert
                0x0000000000000000       0xfa build/default/production/mcc_generated_files/CryptoAuthenticationLibrary/atcacert/atcacert_date.o
 .rodata.month_secs.1917
                0x0000000000000000       0x30 build/default/production/mcc_generated_files/CryptoAuthenticationLibrary/atcacert/atcacert_date.o
 .rodata.ATCACERT_DATE_FORMAT_SIZES
                0x0000000000000000        0xa build/default/production/mcc_generated_files/CryptoAuthenticationLibrary/atcacert/atcacert_date.o
 .debug_info    0x0000000000000000     0x1832 build/default/production/mcc_generated_files/CryptoAuthenticationLibrary/atcacert/atcacert_date.o
 .debug_abbrev  0x0000000000000000      0x2f2 build/default/production/mcc_generated_files/CryptoAuthenticationLibrary/atcacert/atcacert_date.o
 .debug_loc     0x0000000000000000     0x2d19 build/default/production/mcc_generated_files/CryptoAuthenticationLibrary/atcacert/atcacert_date.o
 .debug_aranges
                0x0000000000000000       0xb8 build/default/production/mcc_generated_files/CryptoAuthenticationLibrary/atcacert/atcacert_date.o
 .debug_ranges  0x0000000000000000      0x110 build/default/production/mcc_generated_files/CryptoAuthenticationLibrary/atcacert/atcacert_date.o
 .debug_line    0x0000000000000000      0xe06 build/default/production/mcc_generated_files/CryptoAuthenticationLibrary/atcacert/atcacert_date.o
 .debug_str     0x0000000000000000       0x83 build/default/production/mcc_generated_files/CryptoAuthenticationLibrary/atcacert/atcacert_date.o
 .comment       0x0000000000000000       0x30 build/default/production/mcc_generated_files/CryptoAuthenticationLibrary/atcacert/atcacert_date.o
 .debug_frame   0x0000000000000000      0x374 build/default/production/mcc_generated_files/CryptoAuthenticationLibrary/atcacert/atcacert_date.o
 .text          0x0000000000000000        0x0 build/default/production/mcc_generated_files/CryptoAuthenticationLibrary/atcacert/atcacert_pem.o
 .data          0x0000000000000000        0x0 build/default/production/mcc_generated_files/CryptoAuthenticationLibrary/atcacert/atcacert_pem.o
 .bss           0x0000000000000000        0x0 build/default/production/mcc_generated_files/CryptoAuthenticationLibrary/atcacert/atcacert_pem.o
 .text.atcacert_encode_pem
                0x0000000000000000      0x198 build/default/production/mcc_generated_files/CryptoAuthenticationLibrary/atcacert/atcacert_pem.o
 .text.atcacert_decode_pem
                0x0000000000000000       0xda build/default/production/mcc_generated_files/CryptoAuthenticationLibrary/atcacert/atcacert_pem.o
 .rodata        0x0000000000000000       0x7c build/default/production/mcc_generated_files/CryptoAuthenticationLibrary/atcacert/atcacert_pem.o
 .text.atcacert_encode_pem_cert
                0x0000000000000000       0x26 build/default/production/mcc_generated_files/CryptoAuthenticationLibrary/atcacert/atcacert_pem.o
 .text.atcacert_encode_pem_csr
                0x0000000000000000       0x26 build/default/production/mcc_generated_files/CryptoAuthenticationLibrary/atcacert/atcacert_pem.o
 .text.atcacert_decode_pem_cert
                0x0000000000000000       0x26 build/default/production/mcc_generated_files/CryptoAuthenticationLibrary/atcacert/atcacert_pem.o
 .text.atcacert_decode_pem_csr
                0x0000000000000000       0x26 build/default/production/mcc_generated_files/CryptoAuthenticationLibrary/atcacert/atcacert_pem.o
 .debug_info    0x0000000000000000      0xbf6 build/default/production/mcc_generated_files/CryptoAuthenticationLibrary/atcacert/atcacert_pem.o
 .debug_abbrev  0x0000000000000000      0x104 build/default/production/mcc_generated_files/CryptoAuthenticationLibrary/atcacert/atcacert_pem.o
 .debug_loc     0x0000000000000000      0x91d build/default/production/mcc_generated_files/CryptoAuthenticationLibrary/atcacert/atcacert_pem.o
 .debug_aranges
                0x0000000000000000       0x48 build/default/production/mcc_generated_files/CryptoAuthenticationLibrary/atcacert/atcacert_pem.o
 .debug_ranges  0x0000000000000000       0x38 build/default/production/mcc_generated_files/CryptoAuthenticationLibrary/atcacert/atcacert_pem.o
 .debug_line    0x0000000000000000      0x3a1 build/default/production/mcc_generated_files/CryptoAuthenticationLibrary/atcacert/atcacert_pem.o
 .debug_str     0x0000000000000000       0x80 build/default/production/mcc_generated_files/CryptoAuthenticationLibrary/atcacert/atcacert_pem.o
 .comment       0x0000000000000000       0x30 build/default/production/mcc_generated_files/CryptoAuthenticationLibrary/atcacert/atcacert_pem.o
 .debug_frame   0x0000000000000000      0x160 build/default/production/mcc_generated_files/CryptoAuthenticationLibrary/atcacert/atcacert_pem.o
 .text          0x0000000000000000        0x0 build/default/production/mcc_generated_files/CryptoAuthenticationLibrary/atcacert/atcacert_der.o
 .data          0x0000000000000000        0x0 build/default/production/mcc_generated_files/CryptoAuthenticationLibrary/atcacert/atcacert_der.o
 .bss           0x0000000000000000        0x0 build/default/production/mcc_generated_files/CryptoAuthenticationLibrary/atcacert/atcacert_der.o
 .text.atcacert_der_enc_length
                0x0000000000000000      0x10c build/default/production/mcc_generated_files/CryptoAuthenticationLibrary/atcacert/atcacert_der.o
 .text.atcacert_der_dec_length
                0x0000000000000000      0x136 build/default/production/mcc_generated_files/CryptoAuthenticationLibrary/atcacert/atcacert_der.o
 .text.atcacert_der_adjust_length
                0x0000000000000000      0x100 build/default/production/mcc_generated_files/CryptoAuthenticationLibrary/atcacert/atcacert_der.o
 .text.atcacert_der_enc_integer
                0x0000000000000000      0x1a8 build/default/production/mcc_generated_files/CryptoAuthenticationLibrary/atcacert/atcacert_der.o
 .text.atcacert_der_dec_integer
                0x0000000000000000      0x170 build/default/production/mcc_generated_files/CryptoAuthenticationLibrary/atcacert/atcacert_der.o
 .text.atcacert_der_enc_ecdsa_sig_value
                0x0000000000000000      0x132 build/default/production/mcc_generated_files/CryptoAuthenticationLibrary/atcacert/atcacert_der.o
 .text.atcacert_der_dec_ecdsa_sig_value
                0x0000000000000000      0x370 build/default/production/mcc_generated_files/CryptoAuthenticationLibrary/atcacert/atcacert_der.o
 .debug_info    0x0000000000000000      0xbae build/default/production/mcc_generated_files/CryptoAuthenticationLibrary/atcacert/atcacert_der.o
 .debug_abbrev  0x0000000000000000      0x175 build/default/production/mcc_generated_files/CryptoAuthenticationLibrary/atcacert/atcacert_der.o
 .debug_loc     0x0000000000000000      0xe04 build/default/production/mcc_generated_files/CryptoAuthenticationLibrary/atcacert/atcacert_der.o
 .debug_aranges
                0x0000000000000000       0x50 build/default/production/mcc_generated_files/CryptoAuthenticationLibrary/atcacert/atcacert_der.o
 .debug_ranges  0x0000000000000000       0x58 build/default/production/mcc_generated_files/CryptoAuthenticationLibrary/atcacert/atcacert_der.o
 .debug_line    0x0000000000000000      0x74e build/default/production/mcc_generated_files/CryptoAuthenticationLibrary/atcacert/atcacert_der.o
 .debug_str     0x0000000000000000       0x4c build/default/production/mcc_generated_files/CryptoAuthenticationLibrary/atcacert/atcacert_der.o
 .comment       0x0000000000000000       0x30 build/default/production/mcc_generated_files/CryptoAuthenticationLibrary/atcacert/atcacert_der.o
 .debug_frame   0x0000000000000000      0x278 build/default/production/mcc_generated_files/CryptoAuthenticationLibrary/atcacert/atcacert_der.o
 .text          0x0000000000000000        0x0 build/default/production/mcc_generated_files/CryptoAuthenticationLibrary/atcacert/atcacert_client.o
 .data          0x0000000000000000        0x0 build/default/production/mcc_generated_files/CryptoAuthenticationLibrary/atcacert/atcacert_client.o
 .bss           0x0000000000000000        0x0 build/default/production/mcc_generated_files/CryptoAuthenticationLibrary/atcacert/atcacert_client.o
 .text.atcacert_get_response
                0x0000000000000000       0x2c build/default/production/mcc_generated_files/CryptoAuthenticationLibrary/atcacert/atcacert_client.o
 .text.atcacert_read_device_loc
                0x0000000000000000       0xfc build/default/production/mcc_generated_files/CryptoAuthenticationLibrary/atcacert/atcacert_client.o
 .text.atcacert_read_cert
                0x0000000000000000      0x120 build/default/production/mcc_generated_files/CryptoAuthenticationLibrary/atcacert/atcacert_client.o
 .text.atcacert_write_cert
                0x0000000000000000      0x1e2 build/default/production/mcc_generated_files/CryptoAuthenticationLibrary/atcacert/atcacert_client.o
 .rodata        0x0000000000000000      0x16b build/default/production/mcc_generated_files/CryptoAuthenticationLibrary/atcacert/atcacert_client.o
 .text.atcacert_create_csr
                0x0000000000000000      0x25a build/default/production/mcc_generated_files/CryptoAuthenticationLibrary/atcacert/atcacert_client.o
 .text.atcacert_create_csr_pem
                0x0000000000000000       0xb8 build/default/production/mcc_generated_files/CryptoAuthenticationLibrary/atcacert/atcacert_client.o
 .bss.data.3479
                0x0000000000000000      0x1a0 build/default/production/mcc_generated_files/CryptoAuthenticationLibrary/atcacert/atcacert_client.o
 .bss.data.3464
                0x0000000000000000      0x1a0 build/default/production/mcc_generated_files/CryptoAuthenticationLibrary/atcacert/atcacert_client.o
 .debug_info    0x0000000000000000     0x1920 build/default/production/mcc_generated_files/CryptoAuthenticationLibrary/atcacert/atcacert_client.o
 .debug_abbrev  0x0000000000000000      0x27a build/default/production/mcc_generated_files/CryptoAuthenticationLibrary/atcacert/atcacert_client.o
 .debug_loc     0x0000000000000000      0xa77 build/default/production/mcc_generated_files/CryptoAuthenticationLibrary/atcacert/atcacert_client.o
 .debug_aranges
                0x0000000000000000       0x48 build/default/production/mcc_generated_files/CryptoAuthenticationLibrary/atcacert/atcacert_client.o
 .debug_ranges  0x0000000000000000       0x98 build/default/production/mcc_generated_files/CryptoAuthenticationLibrary/atcacert/atcacert_client.o
 .debug_line    0x0000000000000000      0x597 build/default/production/mcc_generated_files/CryptoAuthenticationLibrary/atcacert/atcacert_client.o
 .debug_str     0x0000000000000000      0x19f build/default/production/mcc_generated_files/CryptoAuthenticationLibrary/atcacert/atcacert_client.o
 .comment       0x0000000000000000       0x30 build/default/production/mcc_generated_files/CryptoAuthenticationLibrary/atcacert/atcacert_client.o
 .debug_frame   0x0000000000000000      0x1e4 build/default/production/mcc_generated_files/CryptoAuthenticationLibrary/atcacert/atcacert_client.o
 .text          0x0000000000000000        0x0 build/default/production/mcc_generated_files/CryptoAuthenticationLibrary/atcacert/atcacert_def.o
 .data          0x0000000000000000        0x0 build/default/production/mcc_generated_files/CryptoAuthenticationLibrary/atcacert/atcacert_def.o
 .bss           0x0000000000000000        0x0 build/default/production/mcc_generated_files/CryptoAuthenticationLibrary/atcacert/atcacert_def.o
 .text.atcacert_is_device_loc_match
                0x0000000000000000       0xb6 build/default/production/mcc_generated_files/CryptoAuthenticationLibrary/atcacert/atcacert_def.o
 .text.get_effective_offset
                0x0000000000000000       0x4e build/default/production/mcc_generated_files/CryptoAuthenticationLibrary/atcacert/atcacert_def.o
 .text.uint8_to_hex
                0x0000000000000000       0x32 build/default/production/mcc_generated_files/CryptoAuthenticationLibrary/atcacert/atcacert_def.o
 .text.hex_to_uint8
                0x0000000000000000       0x8a build/default/production/mcc_generated_files/CryptoAuthenticationLibrary/atcacert/atcacert_def.o
 .text.atcacert_copy_device_loc_data
                0x0000000000000000       0x6a build/default/production/mcc_generated_files/CryptoAuthenticationLibrary/atcacert/atcacert_def.o
 .text.atcacert_merge_device_loc
                0x0000000000000000      0x236 build/default/production/mcc_generated_files/CryptoAuthenticationLibrary/atcacert/atcacert_def.o
 .text.atcacert_get_device_locs
                0x0000000000000000      0x17e build/default/production/mcc_generated_files/CryptoAuthenticationLibrary/atcacert/atcacert_def.o
 .text.atcacert_is_device_loc_overlap
                0x0000000000000000       0x74 build/default/production/mcc_generated_files/CryptoAuthenticationLibrary/atcacert/atcacert_def.o
 .text.atcacert_get_tbs
                0x0000000000000000       0xb0 build/default/production/mcc_generated_files/CryptoAuthenticationLibrary/atcacert/atcacert_def.o
 .text.atcacert_get_tbs_digest
                0x0000000000000000       0x76 build/default/production/mcc_generated_files/CryptoAuthenticationLibrary/atcacert/atcacert_def.o
 .text.atcacert_set_cert_element
                0x0000000000000000       0xde build/default/production/mcc_generated_files/CryptoAuthenticationLibrary/atcacert/atcacert_def.o
 .text.atcacert_set_signature
                0x0000000000000000      0x17c build/default/production/mcc_generated_files/CryptoAuthenticationLibrary/atcacert/atcacert_def.o
 .text.atcacert_set_issue_date
                0x0000000000000000       0xbc build/default/production/mcc_generated_files/CryptoAuthenticationLibrary/atcacert/atcacert_def.o
 .text.atcacert_set_expire_date
                0x0000000000000000       0xbc build/default/production/mcc_generated_files/CryptoAuthenticationLibrary/atcacert/atcacert_def.o
 .text.atcacert_set_signer_id
                0x0000000000000000       0xa4 build/default/production/mcc_generated_files/CryptoAuthenticationLibrary/atcacert/atcacert_def.o
 .text.atcacert_set_comp_cert
                0x0000000000000000      0x15e build/default/production/mcc_generated_files/CryptoAuthenticationLibrary/atcacert/atcacert_def.o
 .text.atcacert_set_cert_sn
                0x0000000000000000      0x1e4 build/default/production/mcc_generated_files/CryptoAuthenticationLibrary/atcacert/atcacert_def.o
 .text.atcacert_set_auth_key_id_raw
                0x0000000000000000       0x4a build/default/production/mcc_generated_files/CryptoAuthenticationLibrary/atcacert/atcacert_def.o
 .text.atcacert_get_cert_element
                0x0000000000000000       0xb2 build/default/production/mcc_generated_files/CryptoAuthenticationLibrary/atcacert/atcacert_def.o
 .text.atcacert_get_subj_public_key
                0x0000000000000000       0x4c build/default/production/mcc_generated_files/CryptoAuthenticationLibrary/atcacert/atcacert_def.o
 .text.atcacert_get_subj_key_id
                0x0000000000000000       0x4e build/default/production/mcc_generated_files/CryptoAuthenticationLibrary/atcacert/atcacert_def.o
 .text.atcacert_get_signature
                0x0000000000000000       0xc0 build/default/production/mcc_generated_files/CryptoAuthenticationLibrary/atcacert/atcacert_def.o
 .text.atcacert_get_issue_date
                0x0000000000000000       0xbc build/default/production/mcc_generated_files/CryptoAuthenticationLibrary/atcacert/atcacert_def.o
 .text.atcacert_get_expire_date
                0x0000000000000000       0xbc build/default/production/mcc_generated_files/CryptoAuthenticationLibrary/atcacert/atcacert_def.o
 .text.atcacert_get_signer_id
                0x0000000000000000       0x8e build/default/production/mcc_generated_files/CryptoAuthenticationLibrary/atcacert/atcacert_def.o
 .text.atcacert_gen_cert_sn
                0x0000000000000000      0x26c build/default/production/mcc_generated_files/CryptoAuthenticationLibrary/atcacert/atcacert_def.o
 .progmem.gcc_sw_table.atcacert_gen_cert_sn
                0x0000000000000000       0x10 build/default/production/mcc_generated_files/CryptoAuthenticationLibrary/atcacert/atcacert_def.o
 .text.atcacert_cert_build_finish
                0x0000000000000000       0x36 build/default/production/mcc_generated_files/CryptoAuthenticationLibrary/atcacert/atcacert_def.o
 .text.atcacert_get_comp_cert
                0x0000000000000000      0x132 build/default/production/mcc_generated_files/CryptoAuthenticationLibrary/atcacert/atcacert_def.o
 .text.atcacert_get_cert_sn
                0x0000000000000000       0x78 build/default/production/mcc_generated_files/CryptoAuthenticationLibrary/atcacert/atcacert_def.o
 .text.atcacert_get_auth_key_id
                0x0000000000000000       0x4e build/default/production/mcc_generated_files/CryptoAuthenticationLibrary/atcacert/atcacert_def.o
 .text.atcacert_get_key_id
                0x0000000000000000       0x56 build/default/production/mcc_generated_files/CryptoAuthenticationLibrary/atcacert/atcacert_def.o
 .text.atcacert_set_subj_public_key
                0x0000000000000000       0xc0 build/default/production/mcc_generated_files/CryptoAuthenticationLibrary/atcacert/atcacert_def.o
 .text.atcacert_set_auth_key_id
                0x0000000000000000       0x9a build/default/production/mcc_generated_files/CryptoAuthenticationLibrary/atcacert/atcacert_def.o
 .text.atcacert_cert_build_start
                0x0000000000000000      0x15e build/default/production/mcc_generated_files/CryptoAuthenticationLibrary/atcacert/atcacert_def.o
 .text.atcacert_public_key_add_padding
                0x0000000000000000       0x52 build/default/production/mcc_generated_files/CryptoAuthenticationLibrary/atcacert/atcacert_def.o
 .text.atcacert_get_device_data
                0x0000000000000000      0x308 build/default/production/mcc_generated_files/CryptoAuthenticationLibrary/atcacert/atcacert_def.o
 .text.atcacert_public_key_remove_padding
                0x0000000000000000       0x38 build/default/production/mcc_generated_files/CryptoAuthenticationLibrary/atcacert/atcacert_def.o
 .text.atcacert_transform_data
                0x0000000000000000      0x132 build/default/production/mcc_generated_files/CryptoAuthenticationLibrary/atcacert/atcacert_def.o
 .progmem.gcc_sw_table.atcacert_transform_data
                0x0000000000000000       0x14 build/default/production/mcc_generated_files/CryptoAuthenticationLibrary/atcacert/atcacert_def.o
 .text.atcacert_cert_build_process
                0x0000000000000000      0x35e build/default/production/mcc_generated_files/CryptoAuthenticationLibrary/atcacert/atcacert_def.o
 .text.atcacert_max_cert_size
                0x0000000000000000       0x90 build/default/production/mcc_generated_files/CryptoAuthenticationLibrary/atcacert/atcacert_def.o
 .rodata.device_sn_dev_loc.3327
                0x0000000000000000        0x7 build/default/production/mcc_generated_files/CryptoAuthenticationLibrary/atcacert/atcacert_def.o
 .debug_info    0x0000000000000000     0x3f3b build/default/production/mcc_generated_files/CryptoAuthenticationLibrary/atcacert/atcacert_def.o
 .debug_abbrev  0x0000000000000000      0x2c1 build/default/production/mcc_generated_files/CryptoAuthenticationLibrary/atcacert/atcacert_def.o
 .debug_loc     0x0000000000000000     0x4dfc build/default/production/mcc_generated_files/CryptoAuthenticationLibrary/atcacert/atcacert_def.o
 .debug_aranges
                0x0000000000000000      0x158 build/default/production/mcc_generated_files/CryptoAuthenticationLibrary/atcacert/atcacert_def.o
 .debug_ranges  0x0000000000000000      0x1a8 build/default/production/mcc_generated_files/CryptoAuthenticationLibrary/atcacert/atcacert_def.o
 .debug_line    0x0000000000000000     0x16b4 build/default/production/mcc_generated_files/CryptoAuthenticationLibrary/atcacert/atcacert_def.o
 .debug_str     0x0000000000000000      0x2d6 build/default/production/mcc_generated_files/CryptoAuthenticationLibrary/atcacert/atcacert_def.o
 .comment       0x0000000000000000       0x30 build/default/production/mcc_generated_files/CryptoAuthenticationLibrary/atcacert/atcacert_def.o
 .debug_frame   0x0000000000000000      0x9f0 build/default/production/mcc_generated_files/CryptoAuthenticationLibrary/atcacert/atcacert_def.o
 .text          0x0000000000000000        0x0 build/default/production/mcc_generated_files/CryptoAuthenticationLibrary/atcacert/atcacert_host_hw.o
 .data          0x0000000000000000        0x0 build/default/production/mcc_generated_files/CryptoAuthenticationLibrary/atcacert/atcacert_host_hw.o
 .bss           0x0000000000000000        0x0 build/default/production/mcc_generated_files/CryptoAuthenticationLibrary/atcacert/atcacert_host_hw.o
 .text.atcacert_verify_cert_hw
                0x0000000000000000       0xc0 build/default/production/mcc_generated_files/CryptoAuthenticationLibrary/atcacert/atcacert_host_hw.o
 .text.atcacert_gen_challenge_hw
                0x0000000000000000       0x12 build/default/production/mcc_generated_files/CryptoAuthenticationLibrary/atcacert/atcacert_host_hw.o
 .text.atcacert_verify_response_hw
                0x0000000000000000       0x60 build/default/production/mcc_generated_files/CryptoAuthenticationLibrary/atcacert/atcacert_host_hw.o
 .debug_info    0x0000000000000000      0xfb5 build/default/production/mcc_generated_files/CryptoAuthenticationLibrary/atcacert/atcacert_host_hw.o
 .debug_abbrev  0x0000000000000000      0x146 build/default/production/mcc_generated_files/CryptoAuthenticationLibrary/atcacert/atcacert_host_hw.o
 .debug_loc     0x0000000000000000      0x39e build/default/production/mcc_generated_files/CryptoAuthenticationLibrary/atcacert/atcacert_host_hw.o
 .debug_aranges
                0x0000000000000000       0x30 build/default/production/mcc_generated_files/CryptoAuthenticationLibrary/atcacert/atcacert_host_hw.o
 .debug_ranges  0x0000000000000000       0x20 build/default/production/mcc_generated_files/CryptoAuthenticationLibrary/atcacert/atcacert_host_hw.o
 .debug_line    0x0000000000000000      0x293 build/default/production/mcc_generated_files/CryptoAuthenticationLibrary/atcacert/atcacert_host_hw.o
 .debug_str     0x0000000000000000       0x66 build/default/production/mcc_generated_files/CryptoAuthenticationLibrary/atcacert/atcacert_host_hw.o
 .comment       0x0000000000000000       0x30 build/default/production/mcc_generated_files/CryptoAuthenticationLibrary/atcacert/atcacert_host_hw.o
 .debug_frame   0x0000000000000000       0x8c build/default/production/mcc_generated_files/CryptoAuthenticationLibrary/atcacert/atcacert_host_hw.o
 .text          0x0000000000000000        0x0 build/default/production/mcc_generated_files/CryptoAuthenticationLibrary/basic/atca_basic_aes_ctr.o
 .data          0x0000000000000000        0x0 build/default/production/mcc_generated_files/CryptoAuthenticationLibrary/basic/atca_basic_aes_ctr.o
 .bss           0x0000000000000000        0x0 build/default/production/mcc_generated_files/CryptoAuthenticationLibrary/basic/atca_basic_aes_ctr.o
 .text.atcab_aes_ctr_init
                0x0000000000000000       0x4a build/default/production/mcc_generated_files/CryptoAuthenticationLibrary/basic/atca_basic_aes_ctr.o
 .text.atcab_aes_ctr_init_rand
                0x0000000000000000       0x94 build/default/production/mcc_generated_files/CryptoAuthenticationLibrary/basic/atca_basic_aes_ctr.o
 .text.atcab_aes_ctr_increment
                0x0000000000000000       0x7a build/default/production/mcc_generated_files/CryptoAuthenticationLibrary/basic/atca_basic_aes_ctr.o
 .text.atcab_aes_ctr_block
                0x0000000000000000       0x9c build/default/production/mcc_generated_files/CryptoAuthenticationLibrary/basic/atca_basic_aes_ctr.o
 .text.atcab_aes_ctr_encrypt_block
                0x0000000000000000        0x6 build/default/production/mcc_generated_files/CryptoAuthenticationLibrary/basic/atca_basic_aes_ctr.o
 .text.atcab_aes_ctr_decrypt_block
                0x0000000000000000        0x6 build/default/production/mcc_generated_files/CryptoAuthenticationLibrary/basic/atca_basic_aes_ctr.o
 .debug_info    0x0000000000000000      0xa3b build/default/production/mcc_generated_files/CryptoAuthenticationLibrary/basic/atca_basic_aes_ctr.o
 .debug_abbrev  0x0000000000000000      0x156 build/default/production/mcc_generated_files/CryptoAuthenticationLibrary/basic/atca_basic_aes_ctr.o
 .debug_loc     0x0000000000000000      0x576 build/default/production/mcc_generated_files/CryptoAuthenticationLibrary/basic/atca_basic_aes_ctr.o
 .debug_aranges
                0x0000000000000000       0x48 build/default/production/mcc_generated_files/CryptoAuthenticationLibrary/basic/atca_basic_aes_ctr.o
 .debug_ranges  0x0000000000000000       0x38 build/default/production/mcc_generated_files/CryptoAuthenticationLibrary/basic/atca_basic_aes_ctr.o
 .debug_line    0x0000000000000000      0x314 build/default/production/mcc_generated_files/CryptoAuthenticationLibrary/basic/atca_basic_aes_ctr.o
 .debug_str     0x0000000000000000       0x52 build/default/production/mcc_generated_files/CryptoAuthenticationLibrary/basic/atca_basic_aes_ctr.o
 .comment       0x0000000000000000       0x30 build/default/production/mcc_generated_files/CryptoAuthenticationLibrary/basic/atca_basic_aes_ctr.o
 .debug_frame   0x0000000000000000       0xdc build/default/production/mcc_generated_files/CryptoAuthenticationLibrary/basic/atca_basic_aes_ctr.o
 .text          0x0000000000000000        0x0 build/default/production/mcc_generated_files/CryptoAuthenticationLibrary/basic/atca_basic_mac.o
 .data          0x0000000000000000        0x0 build/default/production/mcc_generated_files/CryptoAuthenticationLibrary/basic/atca_basic_mac.o
 .bss           0x0000000000000000        0x0 build/default/production/mcc_generated_files/CryptoAuthenticationLibrary/basic/atca_basic_mac.o
 .text.atcab_mac
                0x0000000000000000       0x9e build/default/production/mcc_generated_files/CryptoAuthenticationLibrary/basic/atca_basic_mac.o
 .debug_info    0x0000000000000000      0xde9 build/default/production/mcc_generated_files/CryptoAuthenticationLibrary/basic/atca_basic_mac.o
 .debug_abbrev  0x0000000000000000      0x17e build/default/production/mcc_generated_files/CryptoAuthenticationLibrary/basic/atca_basic_mac.o
 .debug_loc     0x0000000000000000      0x173 build/default/production/mcc_generated_files/CryptoAuthenticationLibrary/basic/atca_basic_mac.o
 .debug_aranges
                0x0000000000000000       0x20 build/default/production/mcc_generated_files/CryptoAuthenticationLibrary/basic/atca_basic_mac.o
 .debug_ranges  0x0000000000000000       0x10 build/default/production/mcc_generated_files/CryptoAuthenticationLibrary/basic/atca_basic_mac.o
 .debug_line    0x0000000000000000      0x1ae build/default/production/mcc_generated_files/CryptoAuthenticationLibrary/basic/atca_basic_mac.o
 .debug_str     0x0000000000000000       0x15 build/default/production/mcc_generated_files/CryptoAuthenticationLibrary/basic/atca_basic_mac.o
 .comment       0x0000000000000000       0x30 build/default/production/mcc_generated_files/CryptoAuthenticationLibrary/basic/atca_basic_mac.o
 .debug_frame   0x0000000000000000       0x4c build/default/production/mcc_generated_files/CryptoAuthenticationLibrary/basic/atca_basic_mac.o
 .text          0x0000000000000000        0x0 build/default/production/mcc_generated_files/CryptoAuthenticationLibrary/basic/atca_basic_aes_cmac.o
 .data          0x0000000000000000        0x0 build/default/production/mcc_generated_files/CryptoAuthenticationLibrary/basic/atca_basic_aes_cmac.o
 .bss           0x0000000000000000        0x0 build/default/production/mcc_generated_files/CryptoAuthenticationLibrary/basic/atca_basic_aes_cmac.o
 .text.left_shift_one
                0x0000000000000000       0x2a build/default/production/mcc_generated_files/CryptoAuthenticationLibrary/basic/atca_basic_aes_cmac.o
 .text.atcab_aes_cmac_init
                0x0000000000000000       0x1c build/default/production/mcc_generated_files/CryptoAuthenticationLibrary/basic/atca_basic_aes_cmac.o
 .text.atcab_aes_cmac_update
                0x0000000000000000      0x1ca build/default/production/mcc_generated_files/CryptoAuthenticationLibrary/basic/atca_basic_aes_cmac.o
 .text.atcab_aes_cmac_finish
                0x0000000000000000      0x172 build/default/production/mcc_generated_files/CryptoAuthenticationLibrary/basic/atca_basic_aes_cmac.o
 .rodata.g_aes_zero_block
                0x0000000000000000       0x10 build/default/production/mcc_generated_files/CryptoAuthenticationLibrary/basic/atca_basic_aes_cmac.o
 .debug_info    0x0000000000000000      0xb02 build/default/production/mcc_generated_files/CryptoAuthenticationLibrary/basic/atca_basic_aes_cmac.o
 .debug_abbrev  0x0000000000000000      0x167 build/default/production/mcc_generated_files/CryptoAuthenticationLibrary/basic/atca_basic_aes_cmac.o
 .debug_loc     0x0000000000000000      0x5ae build/default/production/mcc_generated_files/CryptoAuthenticationLibrary/basic/atca_basic_aes_cmac.o
 .debug_aranges
                0x0000000000000000       0x38 build/default/production/mcc_generated_files/CryptoAuthenticationLibrary/basic/atca_basic_aes_cmac.o
 .debug_ranges  0x0000000000000000       0x28 build/default/production/mcc_generated_files/CryptoAuthenticationLibrary/basic/atca_basic_aes_cmac.o
 .debug_line    0x0000000000000000      0x341 build/default/production/mcc_generated_files/CryptoAuthenticationLibrary/basic/atca_basic_aes_cmac.o
 .debug_str     0x0000000000000000       0x60 build/default/production/mcc_generated_files/CryptoAuthenticationLibrary/basic/atca_basic_aes_cmac.o
 .comment       0x0000000000000000       0x30 build/default/production/mcc_generated_files/CryptoAuthenticationLibrary/basic/atca_basic_aes_cmac.o
 .debug_frame   0x0000000000000000       0xf4 build/default/production/mcc_generated_files/CryptoAuthenticationLibrary/basic/atca_basic_aes_cmac.o
 .text          0x0000000000000000        0x0 build/default/production/mcc_generated_files/CryptoAuthenticationLibrary/basic/atca_helpers.o
 .data          0x0000000000000000        0x0 build/default/production/mcc_generated_files/CryptoAuthenticationLibrary/basic/atca_helpers.o
 .bss           0x0000000000000000        0x0 build/default/production/mcc_generated_files/CryptoAuthenticationLibrary/basic/atca_helpers.o
 .rodata        0x0000000000000000      0x16b build/default/production/mcc_generated_files/CryptoAuthenticationLibrary/basic/atca_helpers.o
 .text.atcab_base64decode_block
                0x0000000000000000      0x110 build/default/production/mcc_generated_files/CryptoAuthenticationLibrary/basic/atca_helpers.o
 .text.atcab_reversal
                0x0000000000000000       0x4a build/default/production/mcc_generated_files/CryptoAuthenticationLibrary/basic/atca_helpers.o
 .text.atcab_bin2hex_
                0x0000000000000000      0x1c8 build/default/production/mcc_generated_files/CryptoAuthenticationLibrary/basic/atca_helpers.o
 .text.atcab_bin2hex
                0x0000000000000000       0x1c build/default/production/mcc_generated_files/CryptoAuthenticationLibrary/basic/atca_helpers.o
 .text.isDigit  0x0000000000000000        0xe build/default/production/mcc_generated_files/CryptoAuthenticationLibrary/basic/atca_helpers.o
 .text.isWhiteSpace
                0x0000000000000000       0x22 build/default/production/mcc_generated_files/CryptoAuthenticationLibrary/basic/atca_helpers.o
 .text.isAlpha  0x0000000000000000       0x10 build/default/production/mcc_generated_files/CryptoAuthenticationLibrary/basic/atca_helpers.o
 .text.isHexAlpha
                0x0000000000000000       0x10 build/default/production/mcc_generated_files/CryptoAuthenticationLibrary/basic/atca_helpers.o
 .text.isHexDigit
                0x0000000000000000       0x16 build/default/production/mcc_generated_files/CryptoAuthenticationLibrary/basic/atca_helpers.o
 .text.atcab_hex2bin_
                0x0000000000000000      0x14a build/default/production/mcc_generated_files/CryptoAuthenticationLibrary/basic/atca_helpers.o
 .text.atcab_hex2bin
                0x0000000000000000        0xc build/default/production/mcc_generated_files/CryptoAuthenticationLibrary/basic/atca_helpers.o
 .text.isHex    0x0000000000000000       0x1e build/default/production/mcc_generated_files/CryptoAuthenticationLibrary/basic/atca_helpers.o
 .text.packHex  0x0000000000000000       0x9a build/default/production/mcc_generated_files/CryptoAuthenticationLibrary/basic/atca_helpers.o
 .text.atcab_printbin
                0x0000000000000000       0xdc build/default/production/mcc_generated_files/CryptoAuthenticationLibrary/basic/atca_helpers.o
 .text.atcab_printbin_label
                0x0000000000000000       0x38 build/default/production/mcc_generated_files/CryptoAuthenticationLibrary/basic/atca_helpers.o
 .text.atcab_printbin_sp
                0x0000000000000000        0x8 build/default/production/mcc_generated_files/CryptoAuthenticationLibrary/basic/atca_helpers.o
 .text.isBase64Digit
                0x0000000000000000       0x4c build/default/production/mcc_generated_files/CryptoAuthenticationLibrary/basic/atca_helpers.o
 .text.isBase64
                0x0000000000000000       0x1e build/default/production/mcc_generated_files/CryptoAuthenticationLibrary/basic/atca_helpers.o
 .text.base64Index
                0x0000000000000000       0x48 build/default/production/mcc_generated_files/CryptoAuthenticationLibrary/basic/atca_helpers.o
 .text.base64Char
                0x0000000000000000       0x42 build/default/production/mcc_generated_files/CryptoAuthenticationLibrary/basic/atca_helpers.o
 .text.atcab_base64decode_
                0x0000000000000000      0x1d4 build/default/production/mcc_generated_files/CryptoAuthenticationLibrary/basic/atca_helpers.o
 .text.atcab_base64encode_
                0x0000000000000000      0x328 build/default/production/mcc_generated_files/CryptoAuthenticationLibrary/basic/atca_helpers.o
 .text.atcab_base64encode
                0x0000000000000000       0x12 build/default/production/mcc_generated_files/CryptoAuthenticationLibrary/basic/atca_helpers.o
 .text.atcab_base64decode
                0x0000000000000000       0x12 build/default/production/mcc_generated_files/CryptoAuthenticationLibrary/basic/atca_helpers.o
 .data.atcab_b64rules_urlsafe
                0x0000000000000000        0x4 build/default/production/mcc_generated_files/CryptoAuthenticationLibrary/basic/atca_helpers.o
 .data.atcab_b64rules_mime
                0x0000000000000000        0x4 build/default/production/mcc_generated_files/CryptoAuthenticationLibrary/basic/atca_helpers.o
 .data.atcab_b64rules_default
                0x0000000000000000        0x4 build/default/production/mcc_generated_files/CryptoAuthenticationLibrary/basic/atca_helpers.o
 .debug_info    0x0000000000000000     0x1716 build/default/production/mcc_generated_files/CryptoAuthenticationLibrary/basic/atca_helpers.o
 .debug_abbrev  0x0000000000000000      0x296 build/default/production/mcc_generated_files/CryptoAuthenticationLibrary/basic/atca_helpers.o
 .debug_loc     0x0000000000000000     0x1dbd build/default/production/mcc_generated_files/CryptoAuthenticationLibrary/basic/atca_helpers.o
 .debug_aranges
                0x0000000000000000       0xd8 build/default/production/mcc_generated_files/CryptoAuthenticationLibrary/basic/atca_helpers.o
 .debug_ranges  0x0000000000000000       0xc8 build/default/production/mcc_generated_files/CryptoAuthenticationLibrary/basic/atca_helpers.o
 .debug_line    0x0000000000000000      0xaee build/default/production/mcc_generated_files/CryptoAuthenticationLibrary/basic/atca_helpers.o
 .debug_str     0x0000000000000000       0x85 build/default/production/mcc_generated_files/CryptoAuthenticationLibrary/basic/atca_helpers.o
 .comment       0x0000000000000000       0x30 build/default/production/mcc_generated_files/CryptoAuthenticationLibrary/basic/atca_helpers.o
 .debug_frame   0x0000000000000000      0x440 build/default/production/mcc_generated_files/CryptoAuthenticationLibrary/basic/atca_helpers.o
 .text          0x0000000000000000        0x0 build/default/production/mcc_generated_files/CryptoAuthenticationLibrary/basic/atca_basic_aes.o
 .data          0x0000000000000000        0x0 build/default/production/mcc_generated_files/CryptoAuthenticationLibrary/basic/atca_basic_aes.o
 .bss           0x0000000000000000        0x0 build/default/production/mcc_generated_files/CryptoAuthenticationLibrary/basic/atca_basic_aes.o
 .text.atcab_aes
                0x0000000000000000       0xb8 build/default/production/mcc_generated_files/CryptoAuthenticationLibrary/basic/atca_basic_aes.o
 .text.atcab_aes_encrypt
                0x0000000000000000       0x14 build/default/production/mcc_generated_files/CryptoAuthenticationLibrary/basic/atca_basic_aes.o
 .text.atcab_aes_decrypt
                0x0000000000000000       0x14 build/default/production/mcc_generated_files/CryptoAuthenticationLibrary/basic/atca_basic_aes.o
 .text.atcab_aes_gfm
                0x0000000000000000       0x4c build/default/production/mcc_generated_files/CryptoAuthenticationLibrary/basic/atca_basic_aes.o
 .debug_info    0x0000000000000000      0xff4 build/default/production/mcc_generated_files/CryptoAuthenticationLibrary/basic/atca_basic_aes.o
 .debug_abbrev  0x0000000000000000      0x18d build/default/production/mcc_generated_files/CryptoAuthenticationLibrary/basic/atca_basic_aes.o
 .debug_loc     0x0000000000000000      0x3b1 build/default/production/mcc_generated_files/CryptoAuthenticationLibrary/basic/atca_basic_aes.o
 .debug_aranges
                0x0000000000000000       0x38 build/default/production/mcc_generated_files/CryptoAuthenticationLibrary/basic/atca_basic_aes.o
 .debug_ranges  0x0000000000000000       0x28 build/default/production/mcc_generated_files/CryptoAuthenticationLibrary/basic/atca_basic_aes.o
 .debug_line    0x0000000000000000      0x21d build/default/production/mcc_generated_files/CryptoAuthenticationLibrary/basic/atca_basic_aes.o
 .debug_str     0x0000000000000000       0x3b build/default/production/mcc_generated_files/CryptoAuthenticationLibrary/basic/atca_basic_aes.o
 .comment       0x0000000000000000       0x30 build/default/production/mcc_generated_files/CryptoAuthenticationLibrary/basic/atca_basic_aes.o
 .debug_frame   0x0000000000000000       0x8c build/default/production/mcc_generated_files/CryptoAuthenticationLibrary/basic/atca_basic_aes.o
 .text          0x0000000000000000        0x0 build/default/production/mcc_generated_files/CryptoAuthenticationLibrary/basic/atca_basic_info.o
 .data          0x0000000000000000        0x0 build/default/production/mcc_generated_files/CryptoAuthenticationLibrary/basic/atca_basic_info.o
 .bss           0x0000000000000000        0x0 build/default/production/mcc_generated_files/CryptoAuthenticationLibrary/basic/atca_basic_info.o
 .text.atcab_info_base
                0x0000000000000000       0x7c build/default/production/mcc_generated_files/CryptoAuthenticationLibrary/basic/atca_basic_info.o
 .text.atcab_info
                0x0000000000000000       0x16 build/default/production/mcc_generated_files/CryptoAuthenticationLibrary/basic/atca_basic_info.o
 .text.atcab_info_get_latch
                0x0000000000000000       0x4c build/default/production/mcc_generated_files/CryptoAuthenticationLibrary/basic/atca_basic_info.o
 .text.atcab_info_set_latch
                0x0000000000000000       0x12 build/default/production/mcc_generated_files/CryptoAuthenticationLibrary/basic/atca_basic_info.o
 .debug_info    0x0000000000000000      0xf28 build/default/production/mcc_generated_files/CryptoAuthenticationLibrary/basic/atca_basic_info.o
 .debug_abbrev  0x0000000000000000      0x1a6 build/default/production/mcc_generated_files/CryptoAuthenticationLibrary/basic/atca_basic_info.o
 .debug_loc     0x0000000000000000      0x1ef build/default/production/mcc_generated_files/CryptoAuthenticationLibrary/basic/atca_basic_info.o
 .debug_aranges
                0x0000000000000000       0x38 build/default/production/mcc_generated_files/CryptoAuthenticationLibrary/basic/atca_basic_info.o
 .debug_ranges  0x0000000000000000       0x28 build/default/production/mcc_generated_files/CryptoAuthenticationLibrary/basic/atca_basic_info.o
 .debug_line    0x0000000000000000      0x21e build/default/production/mcc_generated_files/CryptoAuthenticationLibrary/basic/atca_basic_info.o
 .debug_str     0x0000000000000000       0x25 build/default/production/mcc_generated_files/CryptoAuthenticationLibrary/basic/atca_basic_info.o
 .comment       0x0000000000000000       0x30 build/default/production/mcc_generated_files/CryptoAuthenticationLibrary/basic/atca_basic_info.o
 .debug_frame   0x0000000000000000       0x8c build/default/production/mcc_generated_files/CryptoAuthenticationLibrary/basic/atca_basic_info.o
 .text          0x0000000000000000        0x0 build/default/production/mcc_generated_files/CryptoAuthenticationLibrary/basic/atca_basic_sha.o
 .data          0x0000000000000000        0x0 build/default/production/mcc_generated_files/CryptoAuthenticationLibrary/basic/atca_basic_sha.o
 .bss           0x0000000000000000        0x0 build/default/production/mcc_generated_files/CryptoAuthenticationLibrary/basic/atca_basic_sha.o
 .text.atcab_sha_base
                0x0000000000000000      0x124 build/default/production/mcc_generated_files/CryptoAuthenticationLibrary/basic/atca_basic_sha.o
 .text.atcab_sha_start
                0x0000000000000000       0x20 build/default/production/mcc_generated_files/CryptoAuthenticationLibrary/basic/atca_basic_sha.o
 .text.atcab_sha_update
                0x0000000000000000       0x1e build/default/production/mcc_generated_files/CryptoAuthenticationLibrary/basic/atca_basic_sha.o
 .text.atcab_sha_end
                0x0000000000000000       0x32 build/default/production/mcc_generated_files/CryptoAuthenticationLibrary/basic/atca_basic_sha.o
 .text.atcab_sha_read_context
                0x0000000000000000       0x1c build/default/production/mcc_generated_files/CryptoAuthenticationLibrary/basic/atca_basic_sha.o
 .text.atcab_sha_write_context
                0x0000000000000000       0x1a build/default/production/mcc_generated_files/CryptoAuthenticationLibrary/basic/atca_basic_sha.o
 .text.atcab_hw_sha2_256_init
                0x0000000000000000       0x10 build/default/production/mcc_generated_files/CryptoAuthenticationLibrary/basic/atca_basic_sha.o
 .text.atcab_hw_sha2_256_update
                0x0000000000000000      0x1da build/default/production/mcc_generated_files/CryptoAuthenticationLibrary/basic/atca_basic_sha.o
 .text.atcab_hw_sha2_256_finish
                0x0000000000000000      0x1ca build/default/production/mcc_generated_files/CryptoAuthenticationLibrary/basic/atca_basic_sha.o
 .text.atcab_hw_sha2_256
                0x0000000000000000       0x62 build/default/production/mcc_generated_files/CryptoAuthenticationLibrary/basic/atca_basic_sha.o
 .text.atcab_sha
                0x0000000000000000        0xc build/default/production/mcc_generated_files/CryptoAuthenticationLibrary/basic/atca_basic_sha.o
 .text.atcab_sha_hmac_init
                0x0000000000000000       0x26 build/default/production/mcc_generated_files/CryptoAuthenticationLibrary/basic/atca_basic_sha.o
 .text.atcab_sha_hmac_update
                0x0000000000000000      0x1fc build/default/production/mcc_generated_files/CryptoAuthenticationLibrary/basic/atca_basic_sha.o
 .text.atcab_sha_hmac_finish
                0x0000000000000000       0x6e build/default/production/mcc_generated_files/CryptoAuthenticationLibrary/basic/atca_basic_sha.o
 .text.atcab_sha_hmac
                0x0000000000000000       0x6a build/default/production/mcc_generated_files/CryptoAuthenticationLibrary/basic/atca_basic_sha.o
 .debug_info    0x0000000000000000     0x1a0c build/default/production/mcc_generated_files/CryptoAuthenticationLibrary/basic/atca_basic_sha.o
 .debug_abbrev  0x0000000000000000      0x22d build/default/production/mcc_generated_files/CryptoAuthenticationLibrary/basic/atca_basic_sha.o
 .debug_loc     0x0000000000000000      0xcbe build/default/production/mcc_generated_files/CryptoAuthenticationLibrary/basic/atca_basic_sha.o
 .debug_aranges
                0x0000000000000000       0x90 build/default/production/mcc_generated_files/CryptoAuthenticationLibrary/basic/atca_basic_sha.o
 .debug_ranges  0x0000000000000000       0x80 build/default/production/mcc_generated_files/CryptoAuthenticationLibrary/basic/atca_basic_sha.o
 .debug_line    0x0000000000000000      0x5b0 build/default/production/mcc_generated_files/CryptoAuthenticationLibrary/basic/atca_basic_sha.o
 .debug_str     0x0000000000000000       0x7d build/default/production/mcc_generated_files/CryptoAuthenticationLibrary/basic/atca_basic_sha.o
 .comment       0x0000000000000000       0x30 build/default/production/mcc_generated_files/CryptoAuthenticationLibrary/basic/atca_basic_sha.o
 .debug_frame   0x0000000000000000      0x330 build/default/production/mcc_generated_files/CryptoAuthenticationLibrary/basic/atca_basic_sha.o
 .text          0x0000000000000000        0x0 build/default/production/mcc_generated_files/CryptoAuthenticationLibrary/basic/atca_basic_sign.o
 .data          0x0000000000000000        0x0 build/default/production/mcc_generated_files/CryptoAuthenticationLibrary/basic/atca_basic_sign.o
 .bss           0x0000000000000000        0x0 build/default/production/mcc_generated_files/CryptoAuthenticationLibrary/basic/atca_basic_sign.o
 .text.atcab_sign_internal
                0x0000000000000000       0x12 build/default/production/mcc_generated_files/CryptoAuthenticationLibrary/basic/atca_basic_sign.o
 .text          0x0000000000000000        0x0 build/default/production/mcc_generated_files/CryptoAuthenticationLibrary/basic/atca_basic_secureboot.o
 .data          0x0000000000000000        0x0 build/default/production/mcc_generated_files/CryptoAuthenticationLibrary/basic/atca_basic_secureboot.o
 .bss           0x0000000000000000        0x0 build/default/production/mcc_generated_files/CryptoAuthenticationLibrary/basic/atca_basic_secureboot.o
 .text.atcab_secureboot
                0x0000000000000000       0xba build/default/production/mcc_generated_files/CryptoAuthenticationLibrary/basic/atca_basic_secureboot.o
 .text.atcab_secureboot_mac
                0x0000000000000000      0x1e4 build/default/production/mcc_generated_files/CryptoAuthenticationLibrary/basic/atca_basic_secureboot.o
 .debug_info    0x0000000000000000     0x13a2 build/default/production/mcc_generated_files/CryptoAuthenticationLibrary/basic/atca_basic_secureboot.o
 .debug_abbrev  0x0000000000000000      0x1d2 build/default/production/mcc_generated_files/CryptoAuthenticationLibrary/basic/atca_basic_secureboot.o
 .debug_loc     0x0000000000000000      0x3c2 build/default/production/mcc_generated_files/CryptoAuthenticationLibrary/basic/atca_basic_secureboot.o
 .debug_aranges
                0x0000000000000000       0x28 build/default/production/mcc_generated_files/CryptoAuthenticationLibrary/basic/atca_basic_secureboot.o
 .debug_ranges  0x0000000000000000       0x18 build/default/production/mcc_generated_files/CryptoAuthenticationLibrary/basic/atca_basic_secureboot.o
 .debug_line    0x0000000000000000      0x342 build/default/production/mcc_generated_files/CryptoAuthenticationLibrary/basic/atca_basic_secureboot.o
 .debug_str     0x0000000000000000       0xbf build/default/production/mcc_generated_files/CryptoAuthenticationLibrary/basic/atca_basic_secureboot.o
 .comment       0x0000000000000000       0x30 build/default/production/mcc_generated_files/CryptoAuthenticationLibrary/basic/atca_basic_secureboot.o
 .debug_frame   0x0000000000000000       0xa4 build/default/production/mcc_generated_files/CryptoAuthenticationLibrary/basic/atca_basic_secureboot.o
 .text          0x0000000000000000        0x0 build/default/production/mcc_generated_files/CryptoAuthenticationLibrary/basic/atca_basic.o
 .data          0x0000000000000000        0x0 build/default/production/mcc_generated_files/CryptoAuthenticationLibrary/basic/atca_basic.o
 .bss           0x0000000000000000        0x0 build/default/production/mcc_generated_files/CryptoAuthenticationLibrary/basic/atca_basic.o
 .rodata        0x0000000000000000        0x9 build/default/production/mcc_generated_files/CryptoAuthenticationLibrary/basic/atca_basic.o
 .text.atcab_version
                0x0000000000000000       0x14 build/default/production/mcc_generated_files/CryptoAuthenticationLibrary/basic/atca_basic.o
 .text.atcab_init_device
                0x0000000000000000       0x48 build/default/production/mcc_generated_files/CryptoAuthenticationLibrary/basic/atca_basic.o
 .text.atcab_get_device
                0x0000000000000000        0xa build/default/production/mcc_generated_files/CryptoAuthenticationLibrary/basic/atca_basic.o
 .text.atcab_get_device_type
                0x0000000000000000       0x20 build/default/production/mcc_generated_files/CryptoAuthenticationLibrary/basic/atca_basic.o
 .text.atcab_wakeup
                0x0000000000000000       0x1a build/default/production/mcc_generated_files/CryptoAuthenticationLibrary/basic/atca_basic.o
 .text.atcab_idle
                0x0000000000000000       0x1a build/default/production/mcc_generated_files/CryptoAuthenticationLibrary/basic/atca_basic.o
 .text.atcab_sleep
                0x0000000000000000       0x1a build/default/production/mcc_generated_files/CryptoAuthenticationLibrary/basic/atca_basic.o
 .text.atcab_cfg_discover
                0x0000000000000000       0xc8 build/default/production/mcc_generated_files/CryptoAuthenticationLibrary/basic/atca_basic.o
 .text._atcab_exit
                0x0000000000000000        0x6 build/default/production/mcc_generated_files/CryptoAuthenticationLibrary/basic/atca_basic.o
 .rodata.atca_version
                0x0000000000000000        0x9 build/default/production/mcc_generated_files/CryptoAuthenticationLibrary/basic/atca_basic.o
 .text          0x0000000000000000        0x0 build/default/production/mcc_generated_files/CryptoAuthenticationLibrary/basic/atca_basic_aes_gcm.o
 .data          0x0000000000000000        0x0 build/default/production/mcc_generated_files/CryptoAuthenticationLibrary/basic/atca_basic_aes_gcm.o
 .bss           0x0000000000000000        0x0 build/default/production/mcc_generated_files/CryptoAuthenticationLibrary/basic/atca_basic_aes_gcm.o
 .text.atcab_aes_gcm_increment
                0x0000000000000000       0x62 build/default/production/mcc_generated_files/CryptoAuthenticationLibrary/basic/atca_basic_aes_gcm.o
 .rodata        0x0000000000000000      0x3fe build/default/production/mcc_generated_files/CryptoAuthenticationLibrary/basic/atca_basic_aes_gcm.o
 .text.atcab_aes_ghash
                0x0000000000000000      0x162 build/default/production/mcc_generated_files/CryptoAuthenticationLibrary/basic/atca_basic_aes_gcm.o
 .text.atcab_aes_gcm_update
                0x0000000000000000      0x370 build/default/production/mcc_generated_files/CryptoAuthenticationLibrary/basic/atca_basic_aes_gcm.o
 .text.atcab_aes_gcm_calc_auth_tag
                0x0000000000000000      0x344 build/default/production/mcc_generated_files/CryptoAuthenticationLibrary/basic/atca_basic_aes_gcm.o
 .text.atcab_aes_gcm_init
                0x0000000000000000      0x1d4 build/default/production/mcc_generated_files/CryptoAuthenticationLibrary/basic/atca_basic_aes_gcm.o
 .text.atcab_aes_gcm_init_rand
                0x0000000000000000      0x12e build/default/production/mcc_generated_files/CryptoAuthenticationLibrary/basic/atca_basic_aes_gcm.o
 .text.atcab_aes_gcm_aad_update
                0x0000000000000000      0x23e build/default/production/mcc_generated_files/CryptoAuthenticationLibrary/basic/atca_basic_aes_gcm.o
 .text.atcab_aes_gcm_encrypt_update
                0x0000000000000000       0x16 build/default/production/mcc_generated_files/CryptoAuthenticationLibrary/basic/atca_basic_aes_gcm.o
 .text.atcab_aes_gcm_encrypt_finish
                0x0000000000000000      0x108 build/default/production/mcc_generated_files/CryptoAuthenticationLibrary/basic/atca_basic_aes_gcm.o
 .text.atcab_aes_gcm_decrypt_update
                0x0000000000000000       0x14 build/default/production/mcc_generated_files/CryptoAuthenticationLibrary/basic/atca_basic_aes_gcm.o
 .text.atcab_aes_gcm_decrypt_finish
                0x0000000000000000      0x152 build/default/production/mcc_generated_files/CryptoAuthenticationLibrary/basic/atca_basic_aes_gcm.o
 .data.atca_basic_aes_gcm_version
                0x0000000000000000        0x2 build/default/production/mcc_generated_files/CryptoAuthenticationLibrary/basic/atca_basic_aes_gcm.o
 .debug_info    0x0000000000000000     0x15c9 build/default/production/mcc_generated_files/CryptoAuthenticationLibrary/basic/atca_basic_aes_gcm.o
 .debug_abbrev  0x0000000000000000      0x21b build/default/production/mcc_generated_files/CryptoAuthenticationLibrary/basic/atca_basic_aes_gcm.o
 .debug_loc     0x0000000000000000     0x11ed build/default/production/mcc_generated_files/CryptoAuthenticationLibrary/basic/atca_basic_aes_gcm.o
 .debug_aranges
                0x0000000000000000       0x70 build/default/production/mcc_generated_files/CryptoAuthenticationLibrary/basic/atca_basic_aes_gcm.o
 .debug_ranges  0x0000000000000000       0x60 build/default/production/mcc_generated_files/CryptoAuthenticationLibrary/basic/atca_basic_aes_gcm.o
 .debug_line    0x0000000000000000      0x70a build/default/production/mcc_generated_files/CryptoAuthenticationLibrary/basic/atca_basic_aes_gcm.o
 .debug_str     0x0000000000000000       0x80 build/default/production/mcc_generated_files/CryptoAuthenticationLibrary/basic/atca_basic_aes_gcm.o
 .comment       0x0000000000000000       0x30 build/default/production/mcc_generated_files/CryptoAuthenticationLibrary/basic/atca_basic_aes_gcm.o
 .debug_frame   0x0000000000000000      0x3ac build/default/production/mcc_generated_files/CryptoAuthenticationLibrary/basic/atca_basic_aes_gcm.o
 .text          0x0000000000000000        0x0 build/default/production/mcc_generated_files/CryptoAuthenticationLibrary/basic/atca_basic_lock.o
 .data          0x0000000000000000        0x0 build/default/production/mcc_generated_files/CryptoAuthenticationLibrary/basic/atca_basic_lock.o
 .bss           0x0000000000000000        0x0 build/default/production/mcc_generated_files/CryptoAuthenticationLibrary/basic/atca_basic_lock.o
 .text.atcab_lock_config_zone_crc
                0x0000000000000000        0xa build/default/production/mcc_generated_files/CryptoAuthenticationLibrary/basic/atca_basic_lock.o
 .text.atcab_lock_data_zone_crc
                0x0000000000000000        0xa build/default/production/mcc_generated_files/CryptoAuthenticationLibrary/basic/atca_basic_lock.o
 .text          0x0000000000000000        0x0 build/default/production/mcc_generated_files/CryptoAuthenticationLibrary/basic/atca_basic_ecdh.o
 .data          0x0000000000000000        0x0 build/default/production/mcc_generated_files/CryptoAuthenticationLibrary/basic/atca_basic_ecdh.o
 .bss           0x0000000000000000        0x0 build/default/production/mcc_generated_files/CryptoAuthenticationLibrary/basic/atca_basic_ecdh.o
 .rodata        0x0000000000000000       0x73 build/default/production/mcc_generated_files/CryptoAuthenticationLibrary/basic/atca_basic_ecdh.o
 .text.atcab_ecdh_enc
                0x0000000000000000       0xae build/default/production/mcc_generated_files/CryptoAuthenticationLibrary/basic/atca_basic_ecdh.o
 .text.atcab_ecdh_ioenc
                0x0000000000000000       0x72 build/default/production/mcc_generated_files/CryptoAuthenticationLibrary/basic/atca_basic_ecdh.o
 .text.atcab_ecdh_tempkey
                0x0000000000000000       0x1c build/default/production/mcc_generated_files/CryptoAuthenticationLibrary/basic/atca_basic_ecdh.o
 .text.atcab_ecdh_tempkey_ioenc
                0x0000000000000000       0x74 build/default/production/mcc_generated_files/CryptoAuthenticationLibrary/basic/atca_basic_ecdh.o
 .text          0x0000000000000000        0x0 build/default/production/mcc_generated_files/CryptoAuthenticationLibrary/basic/atca_basic_checkmac.o
 .data          0x0000000000000000        0x0 build/default/production/mcc_generated_files/CryptoAuthenticationLibrary/basic/atca_basic_checkmac.o
 .bss           0x0000000000000000        0x0 build/default/production/mcc_generated_files/CryptoAuthenticationLibrary/basic/atca_basic_checkmac.o
 .text.atcab_checkmac
                0x0000000000000000       0xdc build/default/production/mcc_generated_files/CryptoAuthenticationLibrary/basic/atca_basic_checkmac.o
 .debug_info    0x0000000000000000      0xe0b build/default/production/mcc_generated_files/CryptoAuthenticationLibrary/basic/atca_basic_checkmac.o
 .debug_abbrev  0x0000000000000000      0x15f build/default/production/mcc_generated_files/CryptoAuthenticationLibrary/basic/atca_basic_checkmac.o
 .debug_loc     0x0000000000000000      0x1d2 build/default/production/mcc_generated_files/CryptoAuthenticationLibrary/basic/atca_basic_checkmac.o
 .debug_aranges
                0x0000000000000000       0x20 build/default/production/mcc_generated_files/CryptoAuthenticationLibrary/basic/atca_basic_checkmac.o
 .debug_ranges  0x0000000000000000       0x10 build/default/production/mcc_generated_files/CryptoAuthenticationLibrary/basic/atca_basic_checkmac.o
 .debug_line    0x0000000000000000      0x1e3 build/default/production/mcc_generated_files/CryptoAuthenticationLibrary/basic/atca_basic_checkmac.o
 .debug_str     0x0000000000000000       0x20 build/default/production/mcc_generated_files/CryptoAuthenticationLibrary/basic/atca_basic_checkmac.o
 .comment       0x0000000000000000       0x30 build/default/production/mcc_generated_files/CryptoAuthenticationLibrary/basic/atca_basic_checkmac.o
 .debug_frame   0x0000000000000000       0x4c build/default/production/mcc_generated_files/CryptoAuthenticationLibrary/basic/atca_basic_checkmac.o
 .text          0x0000000000000000        0x0 build/default/production/mcc_generated_files/CryptoAuthenticationLibrary/basic/atca_basic_write.o
 .data          0x0000000000000000        0x0 build/default/production/mcc_generated_files/CryptoAuthenticationLibrary/basic/atca_basic_write.o
 .bss           0x0000000000000000        0x0 build/default/production/mcc_generated_files/CryptoAuthenticationLibrary/basic/atca_basic_write.o
 .text.atcab_write
                0x0000000000000000       0xaa build/default/production/mcc_generated_files/CryptoAuthenticationLibrary/basic/atca_basic_write.o
 .text.atcab_write_zone
                0x0000000000000000       0x84 build/default/production/mcc_generated_files/CryptoAuthenticationLibrary/basic/atca_basic_write.o
 .rodata        0x0000000000000000       0xeb build/default/production/mcc_generated_files/CryptoAuthenticationLibrary/basic/atca_basic_write.o
 .text.atcab_write_enc
                0x0000000000000000      0x2d2 build/default/production/mcc_generated_files/CryptoAuthenticationLibrary/basic/atca_basic_write.o
 .text.atcab_write_pubkey
                0x0000000000000000       0xa8 build/default/production/mcc_generated_files/CryptoAuthenticationLibrary/basic/atca_basic_write.o
 .text.atcab_write_bytes_zone
                0x0000000000000000      0x1d2 build/default/production/mcc_generated_files/CryptoAuthenticationLibrary/basic/atca_basic_write.o
 .text.atcab_write_config_zone
                0x0000000000000000       0x86 build/default/production/mcc_generated_files/CryptoAuthenticationLibrary/basic/atca_basic_write.o
 .text.atcab_write_config_counter
                0x0000000000000000      0x110 build/default/production/mcc_generated_files/CryptoAuthenticationLibrary/basic/atca_basic_write.o
 .debug_info    0x0000000000000000     0x1a7d build/default/production/mcc_generated_files/CryptoAuthenticationLibrary/basic/atca_basic_write.o
 .debug_abbrev  0x0000000000000000      0x2b4 build/default/production/mcc_generated_files/CryptoAuthenticationLibrary/basic/atca_basic_write.o
 .debug_loc     0x0000000000000000      0xc13 build/default/production/mcc_generated_files/CryptoAuthenticationLibrary/basic/atca_basic_write.o
 .debug_aranges
                0x0000000000000000       0x50 build/default/production/mcc_generated_files/CryptoAuthenticationLibrary/basic/atca_basic_write.o
 .debug_ranges  0x0000000000000000       0x40 build/default/production/mcc_generated_files/CryptoAuthenticationLibrary/basic/atca_basic_write.o
 .debug_line    0x0000000000000000      0x698 build/default/production/mcc_generated_files/CryptoAuthenticationLibrary/basic/atca_basic_write.o
 .debug_str     0x0000000000000000       0xd7 build/default/production/mcc_generated_files/CryptoAuthenticationLibrary/basic/atca_basic_write.o
 .comment       0x0000000000000000       0x30 build/default/production/mcc_generated_files/CryptoAuthenticationLibrary/basic/atca_basic_write.o
 .debug_frame   0x0000000000000000      0x20c build/default/production/mcc_generated_files/CryptoAuthenticationLibrary/basic/atca_basic_write.o
 .text          0x0000000000000000        0x0 build/default/production/mcc_generated_files/CryptoAuthenticationLibrary/basic/atca_basic_selftest.o
 .data          0x0000000000000000        0x0 build/default/production/mcc_generated_files/CryptoAuthenticationLibrary/basic/atca_basic_selftest.o
 .bss           0x0000000000000000        0x0 build/default/production/mcc_generated_files/CryptoAuthenticationLibrary/basic/atca_basic_selftest.o
 .text.atcab_selftest
                0x0000000000000000       0x88 build/default/production/mcc_generated_files/CryptoAuthenticationLibrary/basic/atca_basic_selftest.o
 .debug_info    0x0000000000000000      0xddc build/default/production/mcc_generated_files/CryptoAuthenticationLibrary/basic/atca_basic_selftest.o
 .debug_abbrev  0x0000000000000000      0x158 build/default/production/mcc_generated_files/CryptoAuthenticationLibrary/basic/atca_basic_selftest.o
 .debug_loc     0x0000000000000000      0x102 build/default/production/mcc_generated_files/CryptoAuthenticationLibrary/basic/atca_basic_selftest.o
 .debug_aranges
                0x0000000000000000       0x20 build/default/production/mcc_generated_files/CryptoAuthenticationLibrary/basic/atca_basic_selftest.o
 .debug_ranges  0x0000000000000000       0x10 build/default/production/mcc_generated_files/CryptoAuthenticationLibrary/basic/atca_basic_selftest.o
 .debug_line    0x0000000000000000      0x1a7 build/default/production/mcc_generated_files/CryptoAuthenticationLibrary/basic/atca_basic_selftest.o
 .debug_str     0x0000000000000000       0x20 build/default/production/mcc_generated_files/CryptoAuthenticationLibrary/basic/atca_basic_selftest.o
 .comment       0x0000000000000000       0x30 build/default/production/mcc_generated_files/CryptoAuthenticationLibrary/basic/atca_basic_selftest.o
 .debug_frame   0x0000000000000000       0x44 build/default/production/mcc_generated_files/CryptoAuthenticationLibrary/basic/atca_basic_selftest.o
 .text          0x0000000000000000        0x0 build/default/production/mcc_generated_files/CryptoAuthenticationLibrary/basic/atca_basic_counter.o
 .data          0x0000000000000000        0x0 build/default/production/mcc_generated_files/CryptoAuthenticationLibrary/basic/atca_basic_counter.o
 .bss           0x0000000000000000        0x0 build/default/production/mcc_generated_files/CryptoAuthenticationLibrary/basic/atca_basic_counter.o
 .text.atcab_counter
                0x0000000000000000       0xa2 build/default/production/mcc_generated_files/CryptoAuthenticationLibrary/basic/atca_basic_counter.o
 .text.atcab_counter_increment
                0x0000000000000000        0xc build/default/production/mcc_generated_files/CryptoAuthenticationLibrary/basic/atca_basic_counter.o
 .text.atcab_counter_read
                0x0000000000000000        0xc build/default/production/mcc_generated_files/CryptoAuthenticationLibrary/basic/atca_basic_counter.o
 .debug_info    0x0000000000000000      0xea9 build/default/production/mcc_generated_files/CryptoAuthenticationLibrary/basic/atca_basic_counter.o
 .debug_abbrev  0x0000000000000000      0x174 build/default/production/mcc_generated_files/CryptoAuthenticationLibrary/basic/atca_basic_counter.o
 .debug_loc     0x0000000000000000      0x207 build/default/production/mcc_generated_files/CryptoAuthenticationLibrary/basic/atca_basic_counter.o
 .debug_aranges
                0x0000000000000000       0x30 build/default/production/mcc_generated_files/CryptoAuthenticationLibrary/basic/atca_basic_counter.o
 .debug_ranges  0x0000000000000000       0x20 build/default/production/mcc_generated_files/CryptoAuthenticationLibrary/basic/atca_basic_counter.o
 .debug_line    0x0000000000000000      0x1f2 build/default/production/mcc_generated_files/CryptoAuthenticationLibrary/basic/atca_basic_counter.o
 .debug_str     0x0000000000000000       0x38 build/default/production/mcc_generated_files/CryptoAuthenticationLibrary/basic/atca_basic_counter.o
 .comment       0x0000000000000000       0x30 build/default/production/mcc_generated_files/CryptoAuthenticationLibrary/basic/atca_basic_counter.o
 .debug_frame   0x0000000000000000       0x60 build/default/production/mcc_generated_files/CryptoAuthenticationLibrary/basic/atca_basic_counter.o
 .text          0x0000000000000000        0x0 build/default/production/mcc_generated_files/CryptoAuthenticationLibrary/basic/atca_basic_aes_cbc.o
 .data          0x0000000000000000        0x0 build/default/production/mcc_generated_files/CryptoAuthenticationLibrary/basic/atca_basic_aes_cbc.o
 .bss           0x0000000000000000        0x0 build/default/production/mcc_generated_files/CryptoAuthenticationLibrary/basic/atca_basic_aes_cbc.o
 .text.atcab_aes_cbc_init
                0x0000000000000000       0x38 build/default/production/mcc_generated_files/CryptoAuthenticationLibrary/basic/atca_basic_aes_cbc.o
 .text.atcab_aes_cbc_encrypt_block
                0x0000000000000000       0xa2 build/default/production/mcc_generated_files/CryptoAuthenticationLibrary/basic/atca_basic_aes_cbc.o
 .text.atcab_aes_cbc_decrypt_block
                0x0000000000000000       0xa8 build/default/production/mcc_generated_files/CryptoAuthenticationLibrary/basic/atca_basic_aes_cbc.o
 .debug_info    0x0000000000000000      0x7fe build/default/production/mcc_generated_files/CryptoAuthenticationLibrary/basic/atca_basic_aes_cbc.o
 .debug_abbrev  0x0000000000000000      0x141 build/default/production/mcc_generated_files/CryptoAuthenticationLibrary/basic/atca_basic_aes_cbc.o
 .debug_loc     0x0000000000000000      0x2fd build/default/production/mcc_generated_files/CryptoAuthenticationLibrary/basic/atca_basic_aes_cbc.o
 .debug_aranges
                0x0000000000000000       0x30 build/default/production/mcc_generated_files/CryptoAuthenticationLibrary/basic/atca_basic_aes_cbc.o
 .debug_ranges  0x0000000000000000       0x20 build/default/production/mcc_generated_files/CryptoAuthenticationLibrary/basic/atca_basic_aes_cbc.o
 .debug_line    0x0000000000000000      0x210 build/default/production/mcc_generated_files/CryptoAuthenticationLibrary/basic/atca_basic_aes_cbc.o
 .debug_str     0x0000000000000000       0x43 build/default/production/mcc_generated_files/CryptoAuthenticationLibrary/basic/atca_basic_aes_cbc.o
 .comment       0x0000000000000000       0x30 build/default/production/mcc_generated_files/CryptoAuthenticationLibrary/basic/atca_basic_aes_cbc.o
 .debug_frame   0x0000000000000000       0xa4 build/default/production/mcc_generated_files/CryptoAuthenticationLibrary/basic/atca_basic_aes_cbc.o
 .text          0x0000000000000000        0x0 build/default/production/mcc_generated_files/CryptoAuthenticationLibrary/basic/atca_basic_verify.o
 .data          0x0000000000000000        0x0 build/default/production/mcc_generated_files/CryptoAuthenticationLibrary/basic/atca_basic_verify.o
 .bss           0x0000000000000000        0x0 build/default/production/mcc_generated_files/CryptoAuthenticationLibrary/basic/atca_basic_verify.o
 .text.atcab_verify_extern_stored_mac
                0x0000000000000000      0x170 build/default/production/mcc_generated_files/CryptoAuthenticationLibrary/basic/atca_basic_verify.o
 .text.atcab_verify_extern_mac
                0x0000000000000000       0x38 build/default/production/mcc_generated_files/CryptoAuthenticationLibrary/basic/atca_basic_verify.o
 .text.atcab_verify_stored
                0x0000000000000000       0xaa build/default/production/mcc_generated_files/CryptoAuthenticationLibrary/basic/atca_basic_verify.o
 .text.atcab_verify_stored_mac
                0x0000000000000000       0x3a build/default/production/mcc_generated_files/CryptoAuthenticationLibrary/basic/atca_basic_verify.o
 .text.atcab_verify_validate
                0x0000000000000000       0x5c build/default/production/mcc_generated_files/CryptoAuthenticationLibrary/basic/atca_basic_verify.o
 .text.atcab_verify_invalidate
                0x0000000000000000       0x5c build/default/production/mcc_generated_files/CryptoAuthenticationLibrary/basic/atca_basic_verify.o
 .text          0x0000000000000000        0x0 build/default/production/mcc_generated_files/CryptoAuthenticationLibrary/basic/atca_basic_gendig.o
 .data          0x0000000000000000        0x0 build/default/production/mcc_generated_files/CryptoAuthenticationLibrary/basic/atca_basic_gendig.o
 .bss           0x0000000000000000        0x0 build/default/production/mcc_generated_files/CryptoAuthenticationLibrary/basic/atca_basic_gendig.o
 .text.atcab_gendig
                0x0000000000000000       0xbc build/default/production/mcc_generated_files/CryptoAuthenticationLibrary/basic/atca_basic_gendig.o
 .debug_info    0x0000000000000000      0xe1b build/default/production/mcc_generated_files/CryptoAuthenticationLibrary/basic/atca_basic_gendig.o
 .debug_abbrev  0x0000000000000000      0x15f build/default/production/mcc_generated_files/CryptoAuthenticationLibrary/basic/atca_basic_gendig.o
 .debug_loc     0x0000000000000000      0x27f build/default/production/mcc_generated_files/CryptoAuthenticationLibrary/basic/atca_basic_gendig.o
 .debug_aranges
                0x0000000000000000       0x20 build/default/production/mcc_generated_files/CryptoAuthenticationLibrary/basic/atca_basic_gendig.o
 .debug_ranges  0x0000000000000000       0x10 build/default/production/mcc_generated_files/CryptoAuthenticationLibrary/basic/atca_basic_gendig.o
 .debug_line    0x0000000000000000      0x1f9 build/default/production/mcc_generated_files/CryptoAuthenticationLibrary/basic/atca_basic_gendig.o
 .debug_str     0x0000000000000000       0x1e build/default/production/mcc_generated_files/CryptoAuthenticationLibrary/basic/atca_basic_gendig.o
 .comment       0x0000000000000000       0x30 build/default/production/mcc_generated_files/CryptoAuthenticationLibrary/basic/atca_basic_gendig.o
 .debug_frame   0x0000000000000000       0x40 build/default/production/mcc_generated_files/CryptoAuthenticationLibrary/basic/atca_basic_gendig.o
 .text          0x0000000000000000        0x0 build/default/production/mcc_generated_files/CryptoAuthenticationLibrary/basic/atca_basic_genkey.o
 .data          0x0000000000000000        0x0 build/default/production/mcc_generated_files/CryptoAuthenticationLibrary/basic/atca_basic_genkey.o
 .bss           0x0000000000000000        0x0 build/default/production/mcc_generated_files/CryptoAuthenticationLibrary/basic/atca_basic_genkey.o
 .text.atcab_get_pubkey
                0x0000000000000000       0x10 build/default/production/mcc_generated_files/CryptoAuthenticationLibrary/basic/atca_basic_genkey.o
 .text          0x0000000000000000        0x0 build/default/production/mcc_generated_files/CryptoAuthenticationLibrary/basic/atca_basic_kdf.o
 .data          0x0000000000000000        0x0 build/default/production/mcc_generated_files/CryptoAuthenticationLibrary/basic/atca_basic_kdf.o
 .bss           0x0000000000000000        0x0 build/default/production/mcc_generated_files/CryptoAuthenticationLibrary/basic/atca_basic_kdf.o
 .text.atcab_kdf
                0x0000000000000000      0x13a build/default/production/mcc_generated_files/CryptoAuthenticationLibrary/basic/atca_basic_kdf.o
 .debug_info    0x0000000000000000      0xe95 build/default/production/mcc_generated_files/CryptoAuthenticationLibrary/basic/atca_basic_kdf.o
 .debug_abbrev  0x0000000000000000      0x18c build/default/production/mcc_generated_files/CryptoAuthenticationLibrary/basic/atca_basic_kdf.o
 .debug_loc     0x0000000000000000      0x262 build/default/production/mcc_generated_files/CryptoAuthenticationLibrary/basic/atca_basic_kdf.o
 .debug_aranges
                0x0000000000000000       0x20 build/default/production/mcc_generated_files/CryptoAuthenticationLibrary/basic/atca_basic_kdf.o
 .debug_ranges  0x0000000000000000       0x10 build/default/production/mcc_generated_files/CryptoAuthenticationLibrary/basic/atca_basic_kdf.o
 .debug_line    0x0000000000000000      0x215 build/default/production/mcc_generated_files/CryptoAuthenticationLibrary/basic/atca_basic_kdf.o
 .debug_str     0x0000000000000000       0x15 build/default/production/mcc_generated_files/CryptoAuthenticationLibrary/basic/atca_basic_kdf.o
 .comment       0x0000000000000000       0x30 build/default/production/mcc_generated_files/CryptoAuthenticationLibrary/basic/atca_basic_kdf.o
 .debug_frame   0x0000000000000000       0x74 build/default/production/mcc_generated_files/CryptoAuthenticationLibrary/basic/atca_basic_kdf.o
 .text          0x0000000000000000        0x0 build/default/production/mcc_generated_files/CryptoAuthenticationLibrary/basic/atca_basic_hmac.o
 .data          0x0000000000000000        0x0 build/default/production/mcc_generated_files/CryptoAuthenticationLibrary/basic/atca_basic_hmac.o
 .bss           0x0000000000000000        0x0 build/default/production/mcc_generated_files/CryptoAuthenticationLibrary/basic/atca_basic_hmac.o
 .text.atcab_hmac
                0x0000000000000000       0x82 build/default/production/mcc_generated_files/CryptoAuthenticationLibrary/basic/atca_basic_hmac.o
 .debug_info    0x0000000000000000      0xdc2 build/default/production/mcc_generated_files/CryptoAuthenticationLibrary/basic/atca_basic_hmac.o
 .debug_abbrev  0x0000000000000000      0x177 build/default/production/mcc_generated_files/CryptoAuthenticationLibrary/basic/atca_basic_hmac.o
 .debug_loc     0x0000000000000000      0x12f build/default/production/mcc_generated_files/CryptoAuthenticationLibrary/basic/atca_basic_hmac.o
 .debug_aranges
                0x0000000000000000       0x20 build/default/production/mcc_generated_files/CryptoAuthenticationLibrary/basic/atca_basic_hmac.o
 .debug_ranges  0x0000000000000000       0x10 build/default/production/mcc_generated_files/CryptoAuthenticationLibrary/basic/atca_basic_hmac.o
 .debug_line    0x0000000000000000      0x1a3 build/default/production/mcc_generated_files/CryptoAuthenticationLibrary/basic/atca_basic_hmac.o
 .debug_str     0x0000000000000000       0x15 build/default/production/mcc_generated_files/CryptoAuthenticationLibrary/basic/atca_basic_hmac.o
 .comment       0x0000000000000000       0x30 build/default/production/mcc_generated_files/CryptoAuthenticationLibrary/basic/atca_basic_hmac.o
 .debug_frame   0x0000000000000000       0x40 build/default/production/mcc_generated_files/CryptoAuthenticationLibrary/basic/atca_basic_hmac.o
 .text          0x0000000000000000        0x0 build/default/production/mcc_generated_files/CryptoAuthenticationLibrary/basic/atca_basic_nonce.o
 .data          0x0000000000000000        0x0 build/default/production/mcc_generated_files/CryptoAuthenticationLibrary/basic/atca_basic_nonce.o
 .bss           0x0000000000000000        0x0 build/default/production/mcc_generated_files/CryptoAuthenticationLibrary/basic/atca_basic_nonce.o
 .text.atcab_nonce
                0x0000000000000000       0x12 build/default/production/mcc_generated_files/CryptoAuthenticationLibrary/basic/atca_basic_nonce.o
 .text.atcab_nonce_rand
                0x0000000000000000       0x10 build/default/production/mcc_generated_files/CryptoAuthenticationLibrary/basic/atca_basic_nonce.o
 .text.atcab_challenge
                0x0000000000000000       0x12 build/default/production/mcc_generated_files/CryptoAuthenticationLibrary/basic/atca_basic_nonce.o
 .text.atcab_challenge_seed_update
                0x0000000000000000       0x10 build/default/production/mcc_generated_files/CryptoAuthenticationLibrary/basic/atca_basic_nonce.o
 .text          0x0000000000000000        0x0 build/default/production/mcc_generated_files/CryptoAuthenticationLibrary/basic/atca_basic_read.o
 .data          0x0000000000000000        0x0 build/default/production/mcc_generated_files/CryptoAuthenticationLibrary/basic/atca_basic_read.o
 .bss           0x0000000000000000        0x0 build/default/production/mcc_generated_files/CryptoAuthenticationLibrary/basic/atca_basic_read.o
 .text.atcab_is_slot_locked
                0x0000000000000000       0x94 build/default/production/mcc_generated_files/CryptoAuthenticationLibrary/basic/atca_basic_read.o
 .text.atcab_is_locked
                0x0000000000000000       0x8e build/default/production/mcc_generated_files/CryptoAuthenticationLibrary/basic/atca_basic_read.o
 .rodata        0x0000000000000000      0x130 build/default/production/mcc_generated_files/CryptoAuthenticationLibrary/basic/atca_basic_read.o
 .text.atcab_read_enc
                0x0000000000000000      0x266 build/default/production/mcc_generated_files/CryptoAuthenticationLibrary/basic/atca_basic_read.o
 .text.atcab_read_sig
                0x0000000000000000       0x62 build/default/production/mcc_generated_files/CryptoAuthenticationLibrary/basic/atca_basic_read.o
 .text.atcab_read_pubkey
                0x0000000000000000       0xd8 build/default/production/mcc_generated_files/CryptoAuthenticationLibrary/basic/atca_basic_read.o
 .text.atcab_read_config_zone
                0x0000000000000000       0x52 build/default/production/mcc_generated_files/CryptoAuthenticationLibrary/basic/atca_basic_read.o
 .text.atcab_cmp_config_zone
                0x0000000000000000      0x140 build/default/production/mcc_generated_files/CryptoAuthenticationLibrary/basic/atca_basic_read.o
 .text          0x0000000000000000        0x0 build/default/production/mcc_generated_files/CryptoAuthenticationLibrary/basic/atca_basic_updateextra.o
 .data          0x0000000000000000        0x0 build/default/production/mcc_generated_files/CryptoAuthenticationLibrary/basic/atca_basic_updateextra.o
 .bss           0x0000000000000000        0x0 build/default/production/mcc_generated_files/CryptoAuthenticationLibrary/basic/atca_basic_updateextra.o
 .text.atcab_updateextra
                0x0000000000000000       0x5a build/default/production/mcc_generated_files/CryptoAuthenticationLibrary/basic/atca_basic_updateextra.o
 .debug_info    0x0000000000000000      0xdbf build/default/production/mcc_generated_files/CryptoAuthenticationLibrary/basic/atca_basic_updateextra.o
 .debug_abbrev  0x0000000000000000      0x158 build/default/production/mcc_generated_files/CryptoAuthenticationLibrary/basic/atca_basic_updateextra.o
 .debug_loc     0x0000000000000000       0xa4 build/default/production/mcc_generated_files/CryptoAuthenticationLibrary/basic/atca_basic_updateextra.o
 .debug_aranges
                0x0000000000000000       0x20 build/default/production/mcc_generated_files/CryptoAuthenticationLibrary/basic/atca_basic_updateextra.o
 .debug_ranges  0x0000000000000000       0x10 build/default/production/mcc_generated_files/CryptoAuthenticationLibrary/basic/atca_basic_updateextra.o
 .debug_line    0x0000000000000000      0x192 build/default/production/mcc_generated_files/CryptoAuthenticationLibrary/basic/atca_basic_updateextra.o
 .debug_str     0x0000000000000000       0x23 build/default/production/mcc_generated_files/CryptoAuthenticationLibrary/basic/atca_basic_updateextra.o
 .comment       0x0000000000000000       0x30 build/default/production/mcc_generated_files/CryptoAuthenticationLibrary/basic/atca_basic_updateextra.o
 .debug_frame   0x0000000000000000       0x38 build/default/production/mcc_generated_files/CryptoAuthenticationLibrary/basic/atca_basic_updateextra.o
 .text          0x0000000000000000        0x0 build/default/production/mcc_generated_files/CryptoAuthenticationLibrary/basic/atca_basic_derivekey.o
 .data          0x0000000000000000        0x0 build/default/production/mcc_generated_files/CryptoAuthenticationLibrary/basic/atca_basic_derivekey.o
 .bss           0x0000000000000000        0x0 build/default/production/mcc_generated_files/CryptoAuthenticationLibrary/basic/atca_basic_derivekey.o
 .text.atcab_derivekey
                0x0000000000000000       0x78 build/default/production/mcc_generated_files/CryptoAuthenticationLibrary/basic/atca_basic_derivekey.o
 .debug_info    0x0000000000000000      0xde1 build/default/production/mcc_generated_files/CryptoAuthenticationLibrary/basic/atca_basic_derivekey.o
 .debug_abbrev  0x0000000000000000      0x15f build/default/production/mcc_generated_files/CryptoAuthenticationLibrary/basic/atca_basic_derivekey.o
 .debug_loc     0x0000000000000000       0xda build/default/production/mcc_generated_files/CryptoAuthenticationLibrary/basic/atca_basic_derivekey.o
 .debug_aranges
                0x0000000000000000       0x20 build/default/production/mcc_generated_files/CryptoAuthenticationLibrary/basic/atca_basic_derivekey.o
 .debug_ranges  0x0000000000000000       0x10 build/default/production/mcc_generated_files/CryptoAuthenticationLibrary/basic/atca_basic_derivekey.o
 .debug_line    0x0000000000000000      0x196 build/default/production/mcc_generated_files/CryptoAuthenticationLibrary/basic/atca_basic_derivekey.o
 .debug_str     0x0000000000000000       0x21 build/default/production/mcc_generated_files/CryptoAuthenticationLibrary/basic/atca_basic_derivekey.o
 .comment       0x0000000000000000       0x30 build/default/production/mcc_generated_files/CryptoAuthenticationLibrary/basic/atca_basic_derivekey.o
 .debug_frame   0x0000000000000000       0x40 build/default/production/mcc_generated_files/CryptoAuthenticationLibrary/basic/atca_basic_derivekey.o
 .text          0x0000000000000000        0x0 build/default/production/mcc_generated_files/CryptoAuthenticationLibrary/basic/atca_basic_privwrite.o
 .data          0x0000000000000000        0x0 build/default/production/mcc_generated_files/CryptoAuthenticationLibrary/basic/atca_basic_privwrite.o
 .bss           0x0000000000000000        0x0 build/default/production/mcc_generated_files/CryptoAuthenticationLibrary/basic/atca_basic_privwrite.o
 .text.atcab_priv_write
                0x0000000000000000      0x280 build/default/production/mcc_generated_files/CryptoAuthenticationLibrary/basic/atca_basic_privwrite.o
 .debug_info    0x0000000000000000     0x136e build/default/production/mcc_generated_files/CryptoAuthenticationLibrary/basic/atca_basic_privwrite.o
 .debug_abbrev  0x0000000000000000      0x214 build/default/production/mcc_generated_files/CryptoAuthenticationLibrary/basic/atca_basic_privwrite.o
 .debug_loc     0x0000000000000000      0x18d build/default/production/mcc_generated_files/CryptoAuthenticationLibrary/basic/atca_basic_privwrite.o
 .debug_aranges
                0x0000000000000000       0x20 build/default/production/mcc_generated_files/CryptoAuthenticationLibrary/basic/atca_basic_privwrite.o
 .debug_ranges  0x0000000000000000       0x10 build/default/production/mcc_generated_files/CryptoAuthenticationLibrary/basic/atca_basic_privwrite.o
 .debug_line    0x0000000000000000      0x2f6 build/default/production/mcc_generated_files/CryptoAuthenticationLibrary/basic/atca_basic_privwrite.o
 .debug_str     0x0000000000000000       0xa6 build/default/production/mcc_generated_files/CryptoAuthenticationLibrary/basic/atca_basic_privwrite.o
 .comment       0x0000000000000000       0x30 build/default/production/mcc_generated_files/CryptoAuthenticationLibrary/basic/atca_basic_privwrite.o
 .debug_frame   0x0000000000000000       0x78 build/default/production/mcc_generated_files/CryptoAuthenticationLibrary/basic/atca_basic_privwrite.o
 .text          0x0000000000000000        0x0 build/default/production/mcc_generated_files/CryptoAuthenticationLibrary/basic/atca_basic_random.o
 .data          0x0000000000000000        0x0 build/default/production/mcc_generated_files/CryptoAuthenticationLibrary/basic/atca_basic_random.o
 .bss           0x0000000000000000        0x0 build/default/production/mcc_generated_files/CryptoAuthenticationLibrary/basic/atca_basic_random.o
 .text          0x0000000000000000        0x0 build/default/production/mcc_generated_files/CryptoAuthenticationLibrary/crypto/hashes/sha2_routines.o
 .data          0x0000000000000000        0x0 build/default/production/mcc_generated_files/CryptoAuthenticationLibrary/crypto/hashes/sha2_routines.o
 .bss           0x0000000000000000        0x0 build/default/production/mcc_generated_files/CryptoAuthenticationLibrary/crypto/hashes/sha2_routines.o
 .text.sw_sha256_process
                0x0000000000000000      0x900 build/default/production/mcc_generated_files/CryptoAuthenticationLibrary/crypto/hashes/sha2_routines.o
 .text.sw_sha256_init
                0x0000000000000000       0x30 build/default/production/mcc_generated_files/CryptoAuthenticationLibrary/crypto/hashes/sha2_routines.o
 .text.sw_sha256_update
                0x0000000000000000      0x17a build/default/production/mcc_generated_files/CryptoAuthenticationLibrary/crypto/hashes/sha2_routines.o
 .text.sw_sha256_final
                0x0000000000000000      0x192 build/default/production/mcc_generated_files/CryptoAuthenticationLibrary/crypto/hashes/sha2_routines.o
 .text.sw_sha256
                0x0000000000000000       0x5e build/default/production/mcc_generated_files/CryptoAuthenticationLibrary/crypto/hashes/sha2_routines.o
 .rodata.k.1757
                0x0000000000000000      0x100 build/default/production/mcc_generated_files/CryptoAuthenticationLibrary/crypto/hashes/sha2_routines.o
 .rodata.hash_init.1789
                0x0000000000000000       0x20 build/default/production/mcc_generated_files/CryptoAuthenticationLibrary/crypto/hashes/sha2_routines.o
 .debug_info    0x0000000000000000      0x837 build/default/production/mcc_generated_files/CryptoAuthenticationLibrary/crypto/hashes/sha2_routines.o
 .debug_abbrev  0x0000000000000000      0x14b build/default/production/mcc_generated_files/CryptoAuthenticationLibrary/crypto/hashes/sha2_routines.o
 .debug_loc     0x0000000000000000      0x906 build/default/production/mcc_generated_files/CryptoAuthenticationLibrary/crypto/hashes/sha2_routines.o
 .debug_aranges
                0x0000000000000000       0x40 build/default/production/mcc_generated_files/CryptoAuthenticationLibrary/crypto/hashes/sha2_routines.o
 .debug_ranges  0x0000000000000000       0x30 build/default/production/mcc_generated_files/CryptoAuthenticationLibrary/crypto/hashes/sha2_routines.o
 .debug_line    0x0000000000000000      0x307 build/default/production/mcc_generated_files/CryptoAuthenticationLibrary/crypto/hashes/sha2_routines.o
 .debug_str     0x0000000000000000        0xc build/default/production/mcc_generated_files/CryptoAuthenticationLibrary/crypto/hashes/sha2_routines.o
 .comment       0x0000000000000000       0x30 build/default/production/mcc_generated_files/CryptoAuthenticationLibrary/crypto/hashes/sha2_routines.o
 .debug_frame   0x0000000000000000      0x190 build/default/production/mcc_generated_files/CryptoAuthenticationLibrary/crypto/hashes/sha2_routines.o
 .text          0x0000000000000000        0x0 build/default/production/mcc_generated_files/CryptoAuthenticationLibrary/crypto/hashes/sha1_routines.o
 .data          0x0000000000000000        0x0 build/default/production/mcc_generated_files/CryptoAuthenticationLibrary/crypto/hashes/sha1_routines.o
 .bss           0x0000000000000000        0x0 build/default/production/mcc_generated_files/CryptoAuthenticationLibrary/crypto/hashes/sha1_routines.o
 .text.CL_hashInit
                0x0000000000000000       0x1c build/default/production/mcc_generated_files/CryptoAuthenticationLibrary/crypto/hashes/sha1_routines.o
 .text.shaEngine
                0x0000000000000000      0x42e build/default/production/mcc_generated_files/CryptoAuthenticationLibrary/crypto/hashes/sha1_routines.o
 .text.CL_hashUpdate
                0x0000000000000000      0x118 build/default/production/mcc_generated_files/CryptoAuthenticationLibrary/crypto/hashes/sha1_routines.o
 .text.CL_hashFinal
                0x0000000000000000      0x190 build/default/production/mcc_generated_files/CryptoAuthenticationLibrary/crypto/hashes/sha1_routines.o
 .text.CL_hash  0x0000000000000000       0x5a build/default/production/mcc_generated_files/CryptoAuthenticationLibrary/crypto/hashes/sha1_routines.o
 .rodata.hashContext_h_init.2122
                0x0000000000000000       0x14 build/default/production/mcc_generated_files/CryptoAuthenticationLibrary/crypto/hashes/sha1_routines.o
 .debug_info    0x0000000000000000      0x6da build/default/production/mcc_generated_files/CryptoAuthenticationLibrary/crypto/hashes/sha1_routines.o
 .debug_abbrev  0x0000000000000000       0xe5 build/default/production/mcc_generated_files/CryptoAuthenticationLibrary/crypto/hashes/sha1_routines.o
 .debug_loc     0x0000000000000000      0x877 build/default/production/mcc_generated_files/CryptoAuthenticationLibrary/crypto/hashes/sha1_routines.o
 .debug_aranges
                0x0000000000000000       0x40 build/default/production/mcc_generated_files/CryptoAuthenticationLibrary/crypto/hashes/sha1_routines.o
 .debug_ranges  0x0000000000000000       0x30 build/default/production/mcc_generated_files/CryptoAuthenticationLibrary/crypto/hashes/sha1_routines.o
 .debug_line    0x0000000000000000      0x33c build/default/production/mcc_generated_files/CryptoAuthenticationLibrary/crypto/hashes/sha1_routines.o
 .debug_str     0x0000000000000000        0x0 build/default/production/mcc_generated_files/CryptoAuthenticationLibrary/crypto/hashes/sha1_routines.o
 .comment       0x0000000000000000       0x30 build/default/production/mcc_generated_files/CryptoAuthenticationLibrary/crypto/hashes/sha1_routines.o
 .debug_frame   0x0000000000000000      0x174 build/default/production/mcc_generated_files/CryptoAuthenticationLibrary/crypto/hashes/sha1_routines.o
 .text          0x0000000000000000        0x0 build/default/production/mcc_generated_files/CryptoAuthenticationLibrary/crypto/atca_crypto_sw_sha1.o
 .data          0x0000000000000000        0x0 build/default/production/mcc_generated_files/CryptoAuthenticationLibrary/crypto/atca_crypto_sw_sha1.o
 .bss           0x0000000000000000        0x0 build/default/production/mcc_generated_files/CryptoAuthenticationLibrary/crypto/atca_crypto_sw_sha1.o
 .text.atcac_sw_sha1_init
                0x0000000000000000        0xa build/default/production/mcc_generated_files/CryptoAuthenticationLibrary/crypto/atca_crypto_sw_sha1.o
 .text.atcac_sw_sha1_update
                0x0000000000000000        0xa build/default/production/mcc_generated_files/CryptoAuthenticationLibrary/crypto/atca_crypto_sw_sha1.o
 .text.atcac_sw_sha1_finish
                0x0000000000000000        0xa build/default/production/mcc_generated_files/CryptoAuthenticationLibrary/crypto/atca_crypto_sw_sha1.o
 .text.atcac_sw_sha1
                0x0000000000000000       0x5e build/default/production/mcc_generated_files/CryptoAuthenticationLibrary/crypto/atca_crypto_sw_sha1.o
 .debug_info    0x0000000000000000      0x94b build/default/production/mcc_generated_files/CryptoAuthenticationLibrary/crypto/atca_crypto_sw_sha1.o
 .debug_abbrev  0x0000000000000000      0x174 build/default/production/mcc_generated_files/CryptoAuthenticationLibrary/crypto/atca_crypto_sw_sha1.o
 .debug_loc     0x0000000000000000      0x1e4 build/default/production/mcc_generated_files/CryptoAuthenticationLibrary/crypto/atca_crypto_sw_sha1.o
 .debug_aranges
                0x0000000000000000       0x38 build/default/production/mcc_generated_files/CryptoAuthenticationLibrary/crypto/atca_crypto_sw_sha1.o
 .debug_ranges  0x0000000000000000       0x28 build/default/production/mcc_generated_files/CryptoAuthenticationLibrary/crypto/atca_crypto_sw_sha1.o
 .debug_line    0x0000000000000000      0x223 build/default/production/mcc_generated_files/CryptoAuthenticationLibrary/crypto/atca_crypto_sw_sha1.o
 .debug_str     0x0000000000000000       0x31 build/default/production/mcc_generated_files/CryptoAuthenticationLibrary/crypto/atca_crypto_sw_sha1.o
 .comment       0x0000000000000000       0x30 build/default/production/mcc_generated_files/CryptoAuthenticationLibrary/crypto/atca_crypto_sw_sha1.o
 .debug_frame   0x0000000000000000       0x84 build/default/production/mcc_generated_files/CryptoAuthenticationLibrary/crypto/atca_crypto_sw_sha1.o
 .text          0x0000000000000000        0x0 build/default/production/mcc_generated_files/CryptoAuthenticationLibrary/crypto/atca_crypto_sw_rand.o
 .data          0x0000000000000000        0x0 build/default/production/mcc_generated_files/CryptoAuthenticationLibrary/crypto/atca_crypto_sw_rand.o
 .bss           0x0000000000000000        0x0 build/default/production/mcc_generated_files/CryptoAuthenticationLibrary/crypto/atca_crypto_sw_rand.o
 .text.atcac_sw_random
                0x0000000000000000        0x6 build/default/production/mcc_generated_files/CryptoAuthenticationLibrary/crypto/atca_crypto_sw_rand.o
 .debug_info    0x0000000000000000      0x5c5 build/default/production/mcc_generated_files/CryptoAuthenticationLibrary/crypto/atca_crypto_sw_rand.o
 .debug_abbrev  0x0000000000000000       0x89 build/default/production/mcc_generated_files/CryptoAuthenticationLibrary/crypto/atca_crypto_sw_rand.o
 .debug_loc     0x0000000000000000       0x26 build/default/production/mcc_generated_files/CryptoAuthenticationLibrary/crypto/atca_crypto_sw_rand.o
 .debug_aranges
                0x0000000000000000       0x20 build/default/production/mcc_generated_files/CryptoAuthenticationLibrary/crypto/atca_crypto_sw_rand.o
 .debug_ranges  0x0000000000000000       0x10 build/default/production/mcc_generated_files/CryptoAuthenticationLibrary/crypto/atca_crypto_sw_rand.o
 .debug_line    0x0000000000000000      0x151 build/default/production/mcc_generated_files/CryptoAuthenticationLibrary/crypto/atca_crypto_sw_rand.o
 .debug_str     0x0000000000000000        0x0 build/default/production/mcc_generated_files/CryptoAuthenticationLibrary/crypto/atca_crypto_sw_rand.o
 .comment       0x0000000000000000       0x30 build/default/production/mcc_generated_files/CryptoAuthenticationLibrary/crypto/atca_crypto_sw_rand.o
 .debug_frame   0x0000000000000000       0x24 build/default/production/mcc_generated_files/CryptoAuthenticationLibrary/crypto/atca_crypto_sw_rand.o
 .text          0x0000000000000000        0x0 build/default/production/mcc_generated_files/CryptoAuthenticationLibrary/crypto/atca_crypto_sw_sha2.o
 .data          0x0000000000000000        0x0 build/default/production/mcc_generated_files/CryptoAuthenticationLibrary/crypto/atca_crypto_sw_sha2.o
 .bss           0x0000000000000000        0x0 build/default/production/mcc_generated_files/CryptoAuthenticationLibrary/crypto/atca_crypto_sw_sha2.o
 .text.atcac_sw_sha2_256_init
                0x0000000000000000        0xa build/default/production/mcc_generated_files/CryptoAuthenticationLibrary/crypto/atca_crypto_sw_sha2.o
 .text.atcac_sw_sha2_256_update
                0x0000000000000000       0x10 build/default/production/mcc_generated_files/CryptoAuthenticationLibrary/crypto/atca_crypto_sw_sha2.o
 .text.atcac_sw_sha2_256_finish
                0x0000000000000000        0xa build/default/production/mcc_generated_files/CryptoAuthenticationLibrary/crypto/atca_crypto_sw_sha2.o
 .text.atcac_sw_sha2_256
                0x0000000000000000       0x62 build/default/production/mcc_generated_files/CryptoAuthenticationLibrary/crypto/atca_crypto_sw_sha2.o
 .debug_info    0x0000000000000000      0x948 build/default/production/mcc_generated_files/CryptoAuthenticationLibrary/crypto/atca_crypto_sw_sha2.o
 .debug_abbrev  0x0000000000000000      0x174 build/default/production/mcc_generated_files/CryptoAuthenticationLibrary/crypto/atca_crypto_sw_sha2.o
 .debug_loc     0x0000000000000000      0x1f4 build/default/production/mcc_generated_files/CryptoAuthenticationLibrary/crypto/atca_crypto_sw_sha2.o
 .debug_aranges
                0x0000000000000000       0x38 build/default/production/mcc_generated_files/CryptoAuthenticationLibrary/crypto/atca_crypto_sw_sha2.o
 .debug_ranges  0x0000000000000000       0x28 build/default/production/mcc_generated_files/CryptoAuthenticationLibrary/crypto/atca_crypto_sw_sha2.o
 .debug_line    0x0000000000000000      0x223 build/default/production/mcc_generated_files/CryptoAuthenticationLibrary/crypto/atca_crypto_sw_sha2.o
 .debug_str     0x0000000000000000       0x3a build/default/production/mcc_generated_files/CryptoAuthenticationLibrary/crypto/atca_crypto_sw_sha2.o
 .comment       0x0000000000000000       0x30 build/default/production/mcc_generated_files/CryptoAuthenticationLibrary/crypto/atca_crypto_sw_sha2.o
 .debug_frame   0x0000000000000000       0x84 build/default/production/mcc_generated_files/CryptoAuthenticationLibrary/crypto/atca_crypto_sw_sha2.o
 .text          0x0000000000000000        0x0 build/default/production/mcc_generated_files/CryptoAuthenticationLibrary/crypto/atca_crypto_sw_ecdsa.o
 .data          0x0000000000000000        0x0 build/default/production/mcc_generated_files/CryptoAuthenticationLibrary/crypto/atca_crypto_sw_ecdsa.o
 .bss           0x0000000000000000        0x0 build/default/production/mcc_generated_files/CryptoAuthenticationLibrary/crypto/atca_crypto_sw_ecdsa.o
 .text.atcac_sw_ecdsa_verify_p256
                0x0000000000000000        0x6 build/default/production/mcc_generated_files/CryptoAuthenticationLibrary/crypto/atca_crypto_sw_ecdsa.o
 .debug_info    0x0000000000000000      0x5e0 build/default/production/mcc_generated_files/CryptoAuthenticationLibrary/crypto/atca_crypto_sw_ecdsa.o
 .debug_abbrev  0x0000000000000000       0x90 build/default/production/mcc_generated_files/CryptoAuthenticationLibrary/crypto/atca_crypto_sw_ecdsa.o
 .debug_loc     0x0000000000000000       0x26 build/default/production/mcc_generated_files/CryptoAuthenticationLibrary/crypto/atca_crypto_sw_ecdsa.o
 .debug_aranges
                0x0000000000000000       0x20 build/default/production/mcc_generated_files/CryptoAuthenticationLibrary/crypto/atca_crypto_sw_ecdsa.o
 .debug_ranges  0x0000000000000000       0x10 build/default/production/mcc_generated_files/CryptoAuthenticationLibrary/crypto/atca_crypto_sw_ecdsa.o
 .debug_line    0x0000000000000000      0x103 build/default/production/mcc_generated_files/CryptoAuthenticationLibrary/crypto/atca_crypto_sw_ecdsa.o
 .debug_str     0x0000000000000000        0x0 build/default/production/mcc_generated_files/CryptoAuthenticationLibrary/crypto/atca_crypto_sw_ecdsa.o
 .comment       0x0000000000000000       0x30 build/default/production/mcc_generated_files/CryptoAuthenticationLibrary/crypto/atca_crypto_sw_ecdsa.o
 .debug_frame   0x0000000000000000       0x24 build/default/production/mcc_generated_files/CryptoAuthenticationLibrary/crypto/atca_crypto_sw_ecdsa.o
 .text          0x0000000000000000        0x0 build/default/production/mcc_generated_files/CryptoAuthenticationLibrary/hal/hal_i2c_timer.o
 .data          0x0000000000000000        0x0 build/default/production/mcc_generated_files/CryptoAuthenticationLibrary/hal/hal_i2c_timer.o
 .bss           0x0000000000000000        0x0 build/default/production/mcc_generated_files/CryptoAuthenticationLibrary/hal/hal_i2c_timer.o
 .text          0x0000000000000000        0x0 build/default/production/mcc_generated_files/CryptoAuthenticationLibrary/hal/atca_i2c_hal.o
 .data          0x0000000000000000        0x0 build/default/production/mcc_generated_files/CryptoAuthenticationLibrary/hal/atca_i2c_hal.o
 .bss           0x0000000000000000        0x0 build/default/production/mcc_generated_files/CryptoAuthenticationLibrary/hal/atca_i2c_hal.o
 .text.hal_i2c_discover_buses
                0x0000000000000000        0x4 build/default/production/mcc_generated_files/CryptoAuthenticationLibrary/hal/atca_i2c_hal.o
 .text.hal_i2c_discover_devices
                0x0000000000000000        0x4 build/default/production/mcc_generated_files/CryptoAuthenticationLibrary/hal/atca_i2c_hal.o
 .text          0x0000000000000000        0x0 build/default/production/mcc_generated_files/CryptoAuthenticationLibrary/hal/atca_hal.o
 .data          0x0000000000000000        0x0 build/default/production/mcc_generated_files/CryptoAuthenticationLibrary/hal/atca_hal.o
 .bss           0x0000000000000000        0x0 build/default/production/mcc_generated_files/CryptoAuthenticationLibrary/hal/atca_hal.o
 .text          0x0000000000000000        0x0 build/default/production/mcc_generated_files/CryptoAuthenticationLibrary/host/atca_host.o
 .data          0x0000000000000000        0x0 build/default/production/mcc_generated_files/CryptoAuthenticationLibrary/host/atca_host.o
 .bss           0x0000000000000000        0x0 build/default/production/mcc_generated_files/CryptoAuthenticationLibrary/host/atca_host.o
 .text.atcah_include_data
                0x0000000000000000      0x118 build/default/production/mcc_generated_files/CryptoAuthenticationLibrary/host/atca_host.o
 .text.atcah_nonce
                0x0000000000000000      0x236 build/default/production/mcc_generated_files/CryptoAuthenticationLibrary/host/atca_host.o
 .text.atcah_io_decrypt
                0x0000000000000000      0x158 build/default/production/mcc_generated_files/CryptoAuthenticationLibrary/host/atca_host.o
 .text.atcah_verify_mac
                0x0000000000000000      0x280 build/default/production/mcc_generated_files/CryptoAuthenticationLibrary/host/atca_host.o
 .text.atcah_secureboot_enc
                0x0000000000000000       0xf2 build/default/production/mcc_generated_files/CryptoAuthenticationLibrary/host/atca_host.o
 .text.atcah_secureboot_mac
                0x0000000000000000      0x106 build/default/production/mcc_generated_files/CryptoAuthenticationLibrary/host/atca_host.o
 .text.atcah_mac
                0x0000000000000000      0x1d2 build/default/production/mcc_generated_files/CryptoAuthenticationLibrary/host/atca_host.o
 .text.atcah_check_mac
                0x0000000000000000      0x2ea build/default/production/mcc_generated_files/CryptoAuthenticationLibrary/host/atca_host.o
 .text.atcah_hmac
                0x0000000000000000      0x20c build/default/production/mcc_generated_files/CryptoAuthenticationLibrary/host/atca_host.o
 .text.atcah_gen_dig
                0x0000000000000000      0x2e4 build/default/production/mcc_generated_files/CryptoAuthenticationLibrary/host/atca_host.o
 .text.atcah_gen_mac
                0x0000000000000000      0x156 build/default/production/mcc_generated_files/CryptoAuthenticationLibrary/host/atca_host.o
 .text.atcah_write_auth_mac
                0x0000000000000000      0x114 build/default/production/mcc_generated_files/CryptoAuthenticationLibrary/host/atca_host.o
 .text.atcah_privwrite_auth_mac
                0x0000000000000000      0x170 build/default/production/mcc_generated_files/CryptoAuthenticationLibrary/host/atca_host.o
 .text.atcah_derive_key
                0x0000000000000000      0x13e build/default/production/mcc_generated_files/CryptoAuthenticationLibrary/host/atca_host.o
 .text.atcah_derive_key_mac
                0x0000000000000000       0x9a build/default/production/mcc_generated_files/CryptoAuthenticationLibrary/host/atca_host.o
 .text.atcah_decrypt
                0x0000000000000000       0x86 build/default/production/mcc_generated_files/CryptoAuthenticationLibrary/host/atca_host.o
 .text.atcah_sha256
                0x0000000000000000        0xc build/default/production/mcc_generated_files/CryptoAuthenticationLibrary/host/atca_host.o
 .text.atcah_gen_key_msg
                0x0000000000000000      0x172 build/default/production/mcc_generated_files/CryptoAuthenticationLibrary/host/atca_host.o
 .text.atcah_config_to_sign_internal
                0x0000000000000000      0x102 build/default/production/mcc_generated_files/CryptoAuthenticationLibrary/host/atca_host.o
 .text.atcah_sign_internal_msg
                0x0000000000000000      0x19c build/default/production/mcc_generated_files/CryptoAuthenticationLibrary/host/atca_host.o
 .text.atcah_encode_counter_match
                0x0000000000000000       0x58 build/default/production/mcc_generated_files/CryptoAuthenticationLibrary/host/atca_host.o
 .debug_info    0x0000000000000000     0x206d build/default/production/mcc_generated_files/CryptoAuthenticationLibrary/host/atca_host.o
 .debug_abbrev  0x0000000000000000      0x246 build/default/production/mcc_generated_files/CryptoAuthenticationLibrary/host/atca_host.o
 .debug_loc     0x0000000000000000     0x1988 build/default/production/mcc_generated_files/CryptoAuthenticationLibrary/host/atca_host.o
 .debug_aranges
                0x0000000000000000       0xc0 build/default/production/mcc_generated_files/CryptoAuthenticationLibrary/host/atca_host.o
 .debug_ranges  0x0000000000000000       0xb0 build/default/production/mcc_generated_files/CryptoAuthenticationLibrary/host/atca_host.o
 .debug_line    0x0000000000000000     0x1309 build/default/production/mcc_generated_files/CryptoAuthenticationLibrary/host/atca_host.o
 .debug_str     0x0000000000000000      0x126 build/default/production/mcc_generated_files/CryptoAuthenticationLibrary/host/atca_host.o
 .comment       0x0000000000000000       0x30 build/default/production/mcc_generated_files/CryptoAuthenticationLibrary/host/atca_host.o
 .debug_frame   0x0000000000000000      0x3d4 build/default/production/mcc_generated_files/CryptoAuthenticationLibrary/host/atca_host.o
 .text          0x0000000000000000        0x0 build/default/production/mcc_generated_files/CryptoAuthenticationLibrary/jwt/atca_jwt.o
 .data          0x0000000000000000        0x0 build/default/production/mcc_generated_files/CryptoAuthenticationLibrary/jwt/atca_jwt.o
 .bss           0x0000000000000000        0x0 build/default/production/mcc_generated_files/CryptoAuthenticationLibrary/jwt/atca_jwt.o
 .text.atca_jwt_check_payload_start
                0x0000000000000000       0x64 build/default/production/mcc_generated_files/CryptoAuthenticationLibrary/jwt/atca_jwt.o
 .text.atca_jwt_init
                0x0000000000000000       0xae build/default/production/mcc_generated_files/CryptoAuthenticationLibrary/jwt/atca_jwt.o
 .text.atca_jwt_finalize
                0x0000000000000000      0x25e build/default/production/mcc_generated_files/CryptoAuthenticationLibrary/jwt/atca_jwt.o
 .rodata        0x0000000000000000       0x13 build/default/production/mcc_generated_files/CryptoAuthenticationLibrary/jwt/atca_jwt.o
 .text.atca_jwt_add_claim_string
                0x0000000000000000       0xe0 build/default/production/mcc_generated_files/CryptoAuthenticationLibrary/jwt/atca_jwt.o
 .text.atca_jwt_add_claim_numeric
                0x0000000000000000       0xee build/default/production/mcc_generated_files/CryptoAuthenticationLibrary/jwt/atca_jwt.o
 .text.atca_jwt_verify
                0x0000000000000000      0x104 build/default/production/mcc_generated_files/CryptoAuthenticationLibrary/jwt/atca_jwt.o
 .rodata.g_jwt_header
                0x0000000000000000       0x1c build/default/production/mcc_generated_files/CryptoAuthenticationLibrary/jwt/atca_jwt.o
 .debug_info    0x0000000000000000      0xc0d build/default/production/mcc_generated_files/CryptoAuthenticationLibrary/jwt/atca_jwt.o
 .debug_abbrev  0x0000000000000000      0x221 build/default/production/mcc_generated_files/CryptoAuthenticationLibrary/jwt/atca_jwt.o
 .debug_loc     0x0000000000000000      0x644 build/default/production/mcc_generated_files/CryptoAuthenticationLibrary/jwt/atca_jwt.o
 .debug_aranges
                0x0000000000000000       0x48 build/default/production/mcc_generated_files/CryptoAuthenticationLibrary/jwt/atca_jwt.o
 .debug_ranges  0x0000000000000000       0x38 build/default/production/mcc_generated_files/CryptoAuthenticationLibrary/jwt/atca_jwt.o
 .debug_line    0x0000000000000000      0x55d build/default/production/mcc_generated_files/CryptoAuthenticationLibrary/jwt/atca_jwt.o
 .debug_str     0x0000000000000000       0x6a build/default/production/mcc_generated_files/CryptoAuthenticationLibrary/jwt/atca_jwt.o
 .comment       0x0000000000000000       0x30 build/default/production/mcc_generated_files/CryptoAuthenticationLibrary/jwt/atca_jwt.o
 .debug_frame   0x0000000000000000      0x1bc build/default/production/mcc_generated_files/CryptoAuthenticationLibrary/jwt/atca_jwt.o
 .text          0x0000000000000000        0x0 build/default/production/mcc_generated_files/CryptoAuthenticationLibrary/atca_command.o
 .data          0x0000000000000000        0x0 build/default/production/mcc_generated_files/CryptoAuthenticationLibrary/atca_command.o
 .bss           0x0000000000000000        0x0 build/default/production/mcc_generated_files/CryptoAuthenticationLibrary/atca_command.o
 .text.atCheckMAC
                0x0000000000000000       0x14 build/default/production/mcc_generated_files/CryptoAuthenticationLibrary/atca_command.o
 .text.atCounter
                0x0000000000000000       0x14 build/default/production/mcc_generated_files/CryptoAuthenticationLibrary/atca_command.o
 .text.atDeriveKey
                0x0000000000000000       0x20 build/default/production/mcc_generated_files/CryptoAuthenticationLibrary/atca_command.o
 .text.atGenDig
                0x0000000000000000       0x2a build/default/production/mcc_generated_files/CryptoAuthenticationLibrary/atca_command.o
 .text.atHMAC   0x0000000000000000       0x14 build/default/production/mcc_generated_files/CryptoAuthenticationLibrary/atca_command.o
 .text.atInfo   0x0000000000000000       0x14 build/default/production/mcc_generated_files/CryptoAuthenticationLibrary/atca_command.o
 .text.atMAC    0x0000000000000000       0x20 build/default/production/mcc_generated_files/CryptoAuthenticationLibrary/atca_command.o
 .text.atPause  0x0000000000000000       0x14 build/default/production/mcc_generated_files/CryptoAuthenticationLibrary/atca_command.o
 .text.atPrivWrite
                0x0000000000000000       0x14 build/default/production/mcc_generated_files/CryptoAuthenticationLibrary/atca_command.o
 .text.atSecureBoot
                0x0000000000000000       0x32 build/default/production/mcc_generated_files/CryptoAuthenticationLibrary/atca_command.o
 .text.atSHA    0x0000000000000000       0x70 build/default/production/mcc_generated_files/CryptoAuthenticationLibrary/atca_command.o
 .progmem.gcc_sw_table.atSHA
                0x0000000000000000       0x10 build/default/production/mcc_generated_files/CryptoAuthenticationLibrary/atca_command.o
 .text.atUpdateExtra
                0x0000000000000000       0x14 build/default/production/mcc_generated_files/CryptoAuthenticationLibrary/atca_command.o
 .text.atWrite  0x0000000000000000       0x2e build/default/production/mcc_generated_files/CryptoAuthenticationLibrary/atca_command.o
 .text.atAES    0x0000000000000000       0x26 build/default/production/mcc_generated_files/CryptoAuthenticationLibrary/atca_command.o
 .text.atSelfTest
                0x0000000000000000       0x14 build/default/production/mcc_generated_files/CryptoAuthenticationLibrary/atca_command.o
 .text.atKDF    0x0000000000000000       0x24 build/default/production/mcc_generated_files/CryptoAuthenticationLibrary/atca_command.o
 .text.atIsSHAFamily
                0x0000000000000000        0xc build/default/production/mcc_generated_files/CryptoAuthenticationLibrary/atca_command.o
 .text.atIsECCFamily
                0x0000000000000000        0xe build/default/production/mcc_generated_files/CryptoAuthenticationLibrary/atca_command.o
 .text          0x0000000000000000        0x0 build/default/production/mcc_generated_files/CryptoAuthenticationLibrary/atca_cfgs.o
 .data          0x0000000000000000        0x0 build/default/production/mcc_generated_files/CryptoAuthenticationLibrary/atca_cfgs.o
 .bss           0x0000000000000000        0x0 build/default/production/mcc_generated_files/CryptoAuthenticationLibrary/atca_cfgs.o
 .data.cfg_atsha204a_kithid_default
                0x0000000000000000       0x18 build/default/production/mcc_generated_files/CryptoAuthenticationLibrary/atca_cfgs.o
 .data.cfg_atsha204a_kitcdc_default
                0x0000000000000000       0x18 build/default/production/mcc_generated_files/CryptoAuthenticationLibrary/atca_cfgs.o
 .data.cfg_atsha204a_swi_default
                0x0000000000000000       0x18 build/default/production/mcc_generated_files/CryptoAuthenticationLibrary/atca_cfgs.o
 .data.cfg_atsha204a_i2c_default
                0x0000000000000000       0x18 build/default/production/mcc_generated_files/CryptoAuthenticationLibrary/atca_cfgs.o
 .data.cfg_ateccx08a_kithid_default
                0x0000000000000000       0x18 build/default/production/mcc_generated_files/CryptoAuthenticationLibrary/atca_cfgs.o
 .data.cfg_ateccx08a_kitcdc_default
                0x0000000000000000       0x18 build/default/production/mcc_generated_files/CryptoAuthenticationLibrary/atca_cfgs.o
 .data.cfg_ateccx08a_swi_default
                0x0000000000000000       0x18 build/default/production/mcc_generated_files/CryptoAuthenticationLibrary/atca_cfgs.o
 .data.cfg_ateccx08a_i2c_default
                0x0000000000000000       0x18 build/default/production/mcc_generated_files/CryptoAuthenticationLibrary/atca_cfgs.o
 .debug_info    0x0000000000000000      0xb6e build/default/production/mcc_generated_files/CryptoAuthenticationLibrary/atca_cfgs.o
 .debug_abbrev  0x0000000000000000       0xc1 build/default/production/mcc_generated_files/CryptoAuthenticationLibrary/atca_cfgs.o
 .debug_aranges
                0x0000000000000000       0x18 build/default/production/mcc_generated_files/CryptoAuthenticationLibrary/atca_cfgs.o
 .debug_line    0x0000000000000000       0xce build/default/production/mcc_generated_files/CryptoAuthenticationLibrary/atca_cfgs.o
 .debug_str     0x0000000000000000        0x0 build/default/production/mcc_generated_files/CryptoAuthenticationLibrary/atca_cfgs.o
 .comment       0x0000000000000000       0x30 build/default/production/mcc_generated_files/CryptoAuthenticationLibrary/atca_cfgs.o
 .text          0x0000000000000000        0x0 build/default/production/mcc_generated_files/CryptoAuthenticationLibrary/atca_device.o
 .data          0x0000000000000000        0x0 build/default/production/mcc_generated_files/CryptoAuthenticationLibrary/atca_device.o
 .bss           0x0000000000000000        0x0 build/default/production/mcc_generated_files/CryptoAuthenticationLibrary/atca_device.o
 .text.atGetCommands
                0x0000000000000000        0x8 build/default/production/mcc_generated_files/CryptoAuthenticationLibrary/atca_device.o
 .text.atGetIFace
                0x0000000000000000        0x8 build/default/production/mcc_generated_files/CryptoAuthenticationLibrary/atca_device.o
 .text          0x0000000000000000        0x0 build/default/production/mcc_generated_files/CryptoAuthenticationLibrary/atca_execution.o
 .data          0x0000000000000000        0x0 build/default/production/mcc_generated_files/CryptoAuthenticationLibrary/atca_execution.o
 .bss           0x0000000000000000        0x0 build/default/production/mcc_generated_files/CryptoAuthenticationLibrary/atca_execution.o
 .text          0x0000000000000000        0x0 build/default/production/mcc_generated_files/CryptoAuthenticationLibrary/atca_iface.o
 .data          0x0000000000000000        0x0 build/default/production/mcc_generated_files/CryptoAuthenticationLibrary/atca_iface.o
 .bss           0x0000000000000000        0x0 build/default/production/mcc_generated_files/CryptoAuthenticationLibrary/atca_iface.o
 .text.atsleep  0x0000000000000000       0x22 build/default/production/mcc_generated_files/CryptoAuthenticationLibrary/atca_iface.o
 .text.atgetifacehaldat
                0x0000000000000000        0x8 build/default/production/mcc_generated_files/CryptoAuthenticationLibrary/atca_iface.o
 .text          0x0000000000000000        0x0 build/default/production/mcc_generated_files/drivers/timeout.o
 .data          0x0000000000000000        0x0 build/default/production/mcc_generated_files/drivers/timeout.o
 .bss           0x0000000000000000        0x0 build/default/production/mcc_generated_files/drivers/timeout.o
 .text.dummyHandler
                0x0000000000000000        0x8 build/default/production/mcc_generated_files/drivers/timeout.o
 .text.timeout_hasPendingTimeouts
                0x0000000000000000       0x12 build/default/production/mcc_generated_files/drivers/timeout.o
 .text.timeout_hasPendingCallbacks
                0x0000000000000000       0x12 build/default/production/mcc_generated_files/drivers/timeout.o
 .text.setTimerDuration
                0x0000000000000000       0x5e build/default/production/mcc_generated_files/drivers/timeout.o
 .text.makeAbsolute
                0x0000000000000000       0x80 build/default/production/mcc_generated_files/drivers/timeout.o
 .text.timeout_getTimeRemaining
                0x0000000000000000       0x9a build/default/production/mcc_generated_files/drivers/timeout.o
 .text.rebaseList
                0x0000000000000000       0xd6 build/default/production/mcc_generated_files/drivers/timeout.o
 .rodata        0x0000000000000000        0xd build/default/production/mcc_generated_files/drivers/timeout.o
 .text.printList
                0x0000000000000000       0x58 build/default/production/mcc_generated_files/drivers/timeout.o
 .text.timeout_flushAll
                0x0000000000000000       0x46 build/default/production/mcc_generated_files/drivers/timeout.o
 .text.enqueueCallback
                0x0000000000000000       0x44 build/default/production/mcc_generated_files/drivers/timeout.o
 .text.timeout_startTimer
                0x0000000000000000        0xe build/default/production/mcc_generated_files/drivers/timeout.o
 .text.timeout_stopTimer
                0x0000000000000000       0xa4 build/default/production/mcc_generated_files/drivers/timeout.o
 .data.dummy_exec
                0x0000000000000000        0xa build/default/production/mcc_generated_files/drivers/timeout.o
 .text          0x0000000000000000        0x0 build/default/production/mcc_generated_files/drivers/uart.o
 .data          0x0000000000000000        0x0 build/default/production/mcc_generated_files/drivers/uart.o
 .bss           0x0000000000000000        0x0 build/default/production/mcc_generated_files/drivers/uart.o
 .text          0x0000000000000000        0x0 build/default/production/mcc_generated_files/drivers/spi_master.o
 .data          0x0000000000000000        0x0 build/default/production/mcc_generated_files/drivers/spi_master.o
 .bss           0x0000000000000000        0x0 build/default/production/mcc_generated_files/drivers/spi_master.o
 .text.spi_master_open
                0x0000000000000000        0xe build/default/production/mcc_generated_files/drivers/spi_master.o
 .text          0x0000000000000000        0x0 build/default/production/mcc_generated_files/drivers/i2c_simple_master.o
 .data          0x0000000000000000        0x0 build/default/production/mcc_generated_files/drivers/i2c_simple_master.o
 .bss           0x0000000000000000        0x0 build/default/production/mcc_generated_files/drivers/i2c_simple_master.o
 .text.rd1RegCompleteHandler
                0x0000000000000000       0x18 build/default/production/mcc_generated_files/drivers/i2c_simple_master.o
 .text.rd2RegCompleteHandler
                0x0000000000000000       0x18 build/default/production/mcc_generated_files/drivers/i2c_simple_master.o
 .text.wr2RegCompleteHandler
                0x0000000000000000       0x18 build/default/production/mcc_generated_files/drivers/i2c_simple_master.o
 .text.rdBlkRegCompleteHandler
                0x0000000000000000       0x1e build/default/production/mcc_generated_files/drivers/i2c_simple_master.o
 .text.i2c_read1ByteRegister
                0x0000000000000000       0x7a build/default/production/mcc_generated_files/drivers/i2c_simple_master.o
 .text.i2c_read2ByteRegister
                0x0000000000000000       0x66 build/default/production/mcc_generated_files/drivers/i2c_simple_master.o
 .text.i2c_write2ByteRegister
                0x0000000000000000       0x60 build/default/production/mcc_generated_files/drivers/i2c_simple_master.o
 .text.i2c_readDataBlock
                0x0000000000000000       0x66 build/default/production/mcc_generated_files/drivers/i2c_simple_master.o
 .text          0x0000000000000000        0x0 build/default/production/mcc_generated_files/examples/winc_example.o
 .data          0x0000000000000000        0x0 build/default/production/mcc_generated_files/examples/winc_example.o
 .bss           0x0000000000000000        0x0 build/default/production/mcc_generated_files/examples/winc_example.o
 .text.wifi_event_cb
                0x0000000000000000        0x2 build/default/production/mcc_generated_files/examples/winc_example.o
 .rodata        0x0000000000000000       0x13 build/default/production/mcc_generated_files/examples/winc_example.o
 .text.winc_example
                0x0000000000000000       0x4e build/default/production/mcc_generated_files/examples/winc_example.o
 .text.winc_register_init
                0x0000000000000000        0x2 build/default/production/mcc_generated_files/examples/winc_example.o
 .debug_info    0x0000000000000000      0x942 build/default/production/mcc_generated_files/examples/winc_example.o
 .debug_abbrev  0x0000000000000000      0x172 build/default/production/mcc_generated_files/examples/winc_example.o
 .debug_loc     0x0000000000000000       0x13 build/default/production/mcc_generated_files/examples/winc_example.o
 .debug_aranges
                0x0000000000000000       0x30 build/default/production/mcc_generated_files/examples/winc_example.o
 .debug_ranges  0x0000000000000000       0x20 build/default/production/mcc_generated_files/examples/winc_example.o
 .debug_line    0x0000000000000000      0x19b build/default/production/mcc_generated_files/examples/winc_example.o
 .debug_str     0x0000000000000000       0x54 build/default/production/mcc_generated_files/examples/winc_example.o
 .comment       0x0000000000000000       0x30 build/default/production/mcc_generated_files/examples/winc_example.o
 .debug_frame   0x0000000000000000       0x54 build/default/production/mcc_generated_files/examples/winc_example.o
 .text          0x0000000000000000        0x0 build/default/production/mcc_generated_files/examples/twi0_master_example.o
 .data          0x0000000000000000        0x0 build/default/production/mcc_generated_files/examples/twi0_master_example.o
 .bss           0x0000000000000000        0x0 build/default/production/mcc_generated_files/examples/twi0_master_example.o
 .text.wr1RegCompleteHandler_example
                0x0000000000000000       0x18 build/default/production/mcc_generated_files/examples/twi0_master_example.o
 .text.rd1RegCompleteHandler_example
                0x0000000000000000       0x18 build/default/production/mcc_generated_files/examples/twi0_master_example.o
 .text.rd2RegCompleteHandler_example
                0x0000000000000000       0x18 build/default/production/mcc_generated_files/examples/twi0_master_example.o
 .text.wr2RegCompleteHandler_example
                0x0000000000000000       0x18 build/default/production/mcc_generated_files/examples/twi0_master_example.o
 .text.rdBlkRegCompleteHandler_example
                0x0000000000000000       0x1e build/default/production/mcc_generated_files/examples/twi0_master_example.o
 .text.I2C0_example_write1ByteRegister
                0x0000000000000000       0x5a build/default/production/mcc_generated_files/examples/twi0_master_example.o
 .text.I2C0_example_writeNBytes
                0x0000000000000000       0x46 build/default/production/mcc_generated_files/examples/twi0_master_example.o
 .text.I2C0_example_read1ByteRegister
                0x0000000000000000       0x7a build/default/production/mcc_generated_files/examples/twi0_master_example.o
 .text.I2C0_example_read2ByteRegister
                0x0000000000000000       0x66 build/default/production/mcc_generated_files/examples/twi0_master_example.o
 .text.I2C0_example_write2ByteRegister
                0x0000000000000000       0x60 build/default/production/mcc_generated_files/examples/twi0_master_example.o
 .text.I2C0_example_readDataBlock
                0x0000000000000000       0x66 build/default/production/mcc_generated_files/examples/twi0_master_example.o
 .text.I2C0_example_readNBytes
                0x0000000000000000       0x3a build/default/production/mcc_generated_files/examples/twi0_master_example.o
 .debug_info    0x0000000000000000      0xcaf build/default/production/mcc_generated_files/examples/twi0_master_example.o
 .debug_abbrev  0x0000000000000000      0x14e build/default/production/mcc_generated_files/examples/twi0_master_example.o
 .debug_loc     0x0000000000000000      0x512 build/default/production/mcc_generated_files/examples/twi0_master_example.o
 .debug_aranges
                0x0000000000000000       0x78 build/default/production/mcc_generated_files/examples/twi0_master_example.o
 .debug_ranges  0x0000000000000000       0x68 build/default/production/mcc_generated_files/examples/twi0_master_example.o
 .debug_line    0x0000000000000000      0x3b0 build/default/production/mcc_generated_files/examples/twi0_master_example.o
 .debug_str     0x0000000000000000       0x8b build/default/production/mcc_generated_files/examples/twi0_master_example.o
 .comment       0x0000000000000000       0x30 build/default/production/mcc_generated_files/examples/twi0_master_example.o
 .debug_frame   0x0000000000000000      0x18c build/default/production/mcc_generated_files/examples/twi0_master_example.o
 .text          0x0000000000000000        0x0 build/default/production/mcc_generated_files/mqtt/mqtt_comm_bsd/mqtt_comm_layer.o
 .data          0x0000000000000000        0x0 build/default/production/mcc_generated_files/mqtt/mqtt_comm_bsd/mqtt_comm_layer.o
 .bss           0x0000000000000000        0x0 build/default/production/mcc_generated_files/mqtt/mqtt_comm_bsd/mqtt_comm_layer.o
 .text          0x0000000000000000        0x0 build/default/production/mcc_generated_files/mqtt/mqtt_core/mqtt_core.o
 .data          0x0000000000000000        0x0 build/default/production/mcc_generated_files/mqtt/mqtt_core/mqtt_core.o
 .bss           0x0000000000000000        0x0 build/default/production/mcc_generated_files/mqtt/mqtt_core/mqtt_core.o
 .text.MQTT_CreateUnsubscribePacket
                0x0000000000000000       0x80 build/default/production/mcc_generated_files/mqtt/mqtt_core/mqtt_core.o
 .text          0x0000000000000000        0x0 build/default/production/mcc_generated_files/mqtt/mqtt_exchange_buffer/mqtt_exchange_buffer.o
 .data          0x0000000000000000        0x0 build/default/production/mcc_generated_files/mqtt/mqtt_exchange_buffer/mqtt_exchange_buffer.o
 .bss           0x0000000000000000        0x0 build/default/production/mcc_generated_files/mqtt/mqtt_exchange_buffer/mqtt_exchange_buffer.o
 .text          0x0000000000000000        0x0 build/default/production/mcc_generated_files/mqtt/mqtt_winc_adapter.o
 .data          0x0000000000000000        0x0 build/default/production/mcc_generated_files/mqtt/mqtt_winc_adapter.o
 .bss           0x0000000000000000        0x0 build/default/production/mcc_generated_files/mqtt/mqtt_winc_adapter.o
 .text.BSD_GetErrNo
                0x0000000000000000        0x6 build/default/production/mcc_generated_files/mqtt/mqtt_winc_adapter.o
 .text.BSD_GetRecvHandlerTable
                0x0000000000000000        0xa build/default/production/mcc_generated_files/mqtt/mqtt_winc_adapter.o
 .text.BSD_htonl
                0x0000000000000000       0x6a build/default/production/mcc_generated_files/mqtt/mqtt_winc_adapter.o
 .text.BSD_ntohl
                0x0000000000000000       0x6a build/default/production/mcc_generated_files/mqtt/mqtt_winc_adapter.o
 .text.BSD_ntohs
                0x0000000000000000        0x8 build/default/production/mcc_generated_files/mqtt/mqtt_winc_adapter.o
 .text.BSD_bind
                0x0000000000000000       0xbe build/default/production/mcc_generated_files/mqtt/mqtt_winc_adapter.o
 .text.BSD_recvfrom
                0x0000000000000000       0xb8 build/default/production/mcc_generated_files/mqtt/mqtt_winc_adapter.o
 .text.BSD_listen
                0x0000000000000000       0x4e build/default/production/mcc_generated_files/mqtt/mqtt_winc_adapter.o
 .text.BSD_accept
                0x0000000000000000       0x86 build/default/production/mcc_generated_files/mqtt/mqtt_winc_adapter.o
 .text.BSD_getsockopt
                0x0000000000000000        0xc build/default/production/mcc_generated_files/mqtt/mqtt_winc_adapter.o
 .text.BSD_setsockopt
                0x0000000000000000       0x9e build/default/production/mcc_generated_files/mqtt/mqtt_winc_adapter.o
 .text.BSD_write
                0x0000000000000000        0xc build/default/production/mcc_generated_files/mqtt/mqtt_winc_adapter.o
 .text.BSD_read
                0x0000000000000000        0xc build/default/production/mcc_generated_files/mqtt/mqtt_winc_adapter.o
 .text.BSD_poll
                0x0000000000000000        0xc build/default/production/mcc_generated_files/mqtt/mqtt_winc_adapter.o
 .text.BSD_sendto
                0x0000000000000000       0xfe build/default/production/mcc_generated_files/mqtt/mqtt_winc_adapter.o
 .bss.winc_sockaddr.3481
                0x0000000000000000       0x10 build/default/production/mcc_generated_files/mqtt/mqtt_winc_adapter.o
 .text          0x0000000000000000        0x0 build/default/production/mcc_generated_files/mqtt/mqtt_packetTransfer_interface.o
 .data          0x0000000000000000        0x0 build/default/production/mcc_generated_files/mqtt/mqtt_packetTransfer_interface.o
 .bss           0x0000000000000000        0x0 build/default/production/mcc_generated_files/mqtt/mqtt_packetTransfer_interface.o
 .text          0x0000000000000000        0x0 build/default/production/mcc_generated_files/src/protected_io.o
 .data          0x0000000000000000        0x0 build/default/production/mcc_generated_files/src/protected_io.o
 .bss           0x0000000000000000        0x0 build/default/production/mcc_generated_files/src/protected_io.o
 .text          0x0000000000000000        0x0 build/default/production/mcc_generated_files/src/twi0_master.o
 .data          0x0000000000000000        0x0 build/default/production/mcc_generated_files/src/twi0_master.o
 .bss           0x0000000000000000        0x0 build/default/production/mcc_generated_files/src/twi0_master.o
 .text.I2C0_SetWriteCollisionCallback
                0x0000000000000000        0xc build/default/production/mcc_generated_files/src/twi0_master.o
 .text.I2C0_SetDataNackCallback
                0x0000000000000000        0xc build/default/production/mcc_generated_files/src/twi0_master.o
 .text.I2C0_SetTimeoutCallback
                0x0000000000000000        0xc build/default/production/mcc_generated_files/src/twi0_master.o
 .text.I2C0_SetAddress
                0x0000000000000000        0x6 build/default/production/mcc_generated_files/src/twi0_master.o
 .text.I2C0_MasterOpen
                0x0000000000000000        0xa build/default/production/mcc_generated_files/src/twi0_master.o
 .text.I2C0_MasterClose
                0x0000000000000000        0x6 build/default/production/mcc_generated_files/src/twi0_master.o
 .text.I2C0_MasterIsIrqEnabled
                0x0000000000000000       0x20 build/default/production/mcc_generated_files/src/twi0_master.o
 .text.I2C0_SetTimeout
                0x0000000000000000       0x1c build/default/production/mcc_generated_files/src/twi0_master.o
 .text.I2C0_MasterClearBusCollision
                0x0000000000000000        0xc build/default/production/mcc_generated_files/src/twi0_master.o
 .text.I2C0_MasterWaitForEvent
                0x0000000000000000       0x12 build/default/production/mcc_generated_files/src/twi0_master.o
 .text.I2C0_MasterGetRxData
                0x0000000000000000        0x6 build/default/production/mcc_generated_files/src/twi0_master.o
 .text.I2C0_MasterTxData
                0x0000000000000000        0x6 build/default/production/mcc_generated_files/src/twi0_master.o
 .text.I2C0_MasterTxAddr
                0x0000000000000000        0x6 build/default/production/mcc_generated_files/src/twi0_master.o
 .text.I2C0_SetReturnStopCallback
                0x0000000000000000        0x4 build/default/production/mcc_generated_files/src/twi0_master.o
 .text.I2C0_SetReturnResetCallback
                0x0000000000000000        0x4 build/default/production/mcc_generated_files/src/twi0_master.o
 .text.I2C0_SetRestartReadCallback
                0x0000000000000000        0x4 build/default/production/mcc_generated_files/src/twi0_master.o
 .text          0x0000000000000000        0x0 build/default/production/mcc_generated_files/src/adc0.o
 .data          0x0000000000000000        0x0 build/default/production/mcc_generated_files/src/adc0.o
 .bss           0x0000000000000000        0x0 build/default/production/mcc_generated_files/src/adc0.o
 .text.ADC0_Enable
                0x0000000000000000        0xc build/default/production/mcc_generated_files/src/adc0.o
 .text.ADC0_Disable
                0x0000000000000000        0xc build/default/production/mcc_generated_files/src/adc0.o
 .text.ADC0_EnableAutoTrigger
                0x0000000000000000        0xc build/default/production/mcc_generated_files/src/adc0.o
 .text.ADC0_DisableAutoTrigger
                0x0000000000000000        0xc build/default/production/mcc_generated_files/src/adc0.o
 .text.ADC0_SetWindowHigh
                0x0000000000000000        0xa build/default/production/mcc_generated_files/src/adc0.o
 .text.ADC0_SetWindowLow
                0x0000000000000000        0xa build/default/production/mcc_generated_files/src/adc0.o
 .text.ADC0_SetWindowMode
                0x0000000000000000        0x6 build/default/production/mcc_generated_files/src/adc0.o
 .text.ADC0_SetWindowChannel
                0x0000000000000000        0x6 build/default/production/mcc_generated_files/src/adc0.o
 .text.ADC0_StartConversion
                0x0000000000000000        0xc build/default/production/mcc_generated_files/src/adc0.o
 .text.ADC0_IsConversionDone
                0x0000000000000000        0x8 build/default/production/mcc_generated_files/src/adc0.o
 .text.ADC0_GetConversionResult
                0x0000000000000000        0xa build/default/production/mcc_generated_files/src/adc0.o
 .text.ADC0_GetWindowResult
                0x0000000000000000       0x10 build/default/production/mcc_generated_files/src/adc0.o
 .text.ADC0_GetConversion
                0x0000000000000000       0x20 build/default/production/mcc_generated_files/src/adc0.o
 .text.ADC0_GetResolution
                0x0000000000000000       0x10 build/default/production/mcc_generated_files/src/adc0.o
 .text.ADC0_RegisterWindowCallback
                0x0000000000000000        0xa build/default/production/mcc_generated_files/src/adc0.o
 .text          0x0000000000000000        0x0 build/default/production/mcc_generated_files/src/usart2.o
 .data          0x0000000000000000        0x0 build/default/production/mcc_generated_files/src/usart2.o
 .bss           0x0000000000000000        0x0 build/default/production/mcc_generated_files/src/usart2.o
 .text.USART2_SetISRCb
                0x0000000000000000       0x1e build/default/production/mcc_generated_files/src/usart2.o
 .text.USART2_IsTxBusy
                0x0000000000000000       0x10 build/default/production/mcc_generated_files/src/usart2.o
 .text.USART2_Enable
                0x0000000000000000        0xc build/default/production/mcc_generated_files/src/usart2.o
 .text.USART2_EnableRx
                0x0000000000000000        0xc build/default/production/mcc_generated_files/src/usart2.o
 .text.USART2_EnableTx
                0x0000000000000000        0xc build/default/production/mcc_generated_files/src/usart2.o
 .text.USART2_Disable
                0x0000000000000000        0xc build/default/production/mcc_generated_files/src/usart2.o
 .text.USART2_GetData
                0x0000000000000000        0x6 build/default/production/mcc_generated_files/src/usart2.o
 .text          0x0000000000000000        0x0 build/default/production/mcc_generated_files/src/cpuint.o
 .data          0x0000000000000000        0x0 build/default/production/mcc_generated_files/src/cpuint.o
 .bss           0x0000000000000000        0x0 build/default/production/mcc_generated_files/src/cpuint.o
 .text          0x0000000000000000        0x0 build/default/production/mcc_generated_files/src/pin_manager.o
 .data          0x0000000000000000        0x0 build/default/production/mcc_generated_files/src/pin_manager.o
 .bss           0x0000000000000000        0x0 build/default/production/mcc_generated_files/src/pin_manager.o
 .text.PORTD_PD5_DefaultInterruptHandler
                0x0000000000000000        0x2 build/default/production/mcc_generated_files/src/pin_manager.o
 .text.PORTA_PA2_DefaultInterruptHandler
                0x0000000000000000        0x2 build/default/production/mcc_generated_files/src/pin_manager.o
 .text.PORTA_RST_DefaultInterruptHandler
                0x0000000000000000        0x2 build/default/production/mcc_generated_files/src/pin_manager.o
 .text.PORTC_PC3_DefaultInterruptHandler
                0x0000000000000000        0x2 build/default/production/mcc_generated_files/src/pin_manager.o
 .text.PORTA_PA4_DefaultInterruptHandler
                0x0000000000000000        0x2 build/default/production/mcc_generated_files/src/pin_manager.o
 .text.PORTA_PA3_DefaultInterruptHandler
                0x0000000000000000        0x2 build/default/production/mcc_generated_files/src/pin_manager.o
 .text.PORTA_PA6_DefaultInterruptHandler
                0x0000000000000000        0x2 build/default/production/mcc_generated_files/src/pin_manager.o
 .text.PORTA_PA5_DefaultInterruptHandler
                0x0000000000000000        0x2 build/default/production/mcc_generated_files/src/pin_manager.o
 .text.PORTA_nCS_DefaultInterruptHandler
                0x0000000000000000        0x2 build/default/production/mcc_generated_files/src/pin_manager.o
 .text.PORTD_LED_YELLOW_DefaultInterruptHandler
                0x0000000000000000        0x2 build/default/production/mcc_generated_files/src/pin_manager.o
 .text.PORTC_PC0_DefaultInterruptHandler
                0x0000000000000000        0x2 build/default/production/mcc_generated_files/src/pin_manager.o
 .text.PORTD_LED_RED_DefaultInterruptHandler
                0x0000000000000000        0x2 build/default/production/mcc_generated_files/src/pin_manager.o
 .text.PORTD_LED_BLUE_DefaultInterruptHandler
                0x0000000000000000        0x2 build/default/production/mcc_generated_files/src/pin_manager.o
 .text.PORTD_LED_GREEN_DefaultInterruptHandler
                0x0000000000000000        0x2 build/default/production/mcc_generated_files/src/pin_manager.o
 .text.PORTC_PC1_DefaultInterruptHandler
                0x0000000000000000        0x2 build/default/production/mcc_generated_files/src/pin_manager.o
 .text.PORTD_PD5_SetInterruptHandler
                0x0000000000000000        0x2 build/default/production/mcc_generated_files/src/pin_manager.o
 .text.PORTA_PA2_SetInterruptHandler
                0x0000000000000000        0x2 build/default/production/mcc_generated_files/src/pin_manager.o
 .text.PORTA_RST_SetInterruptHandler
                0x0000000000000000        0x2 build/default/production/mcc_generated_files/src/pin_manager.o
 .text.PORTF_SW0_SetInterruptHandler
                0x0000000000000000        0xa build/default/production/mcc_generated_files/src/pin_manager.o
 .text.PORTC_PC3_SetInterruptHandler
                0x0000000000000000        0x2 build/default/production/mcc_generated_files/src/pin_manager.o
 .text.PORTA_PA4_SetInterruptHandler
                0x0000000000000000        0x2 build/default/production/mcc_generated_files/src/pin_manager.o
 .text.PORTA_PA3_SetInterruptHandler
                0x0000000000000000        0x2 build/default/production/mcc_generated_files/src/pin_manager.o
 .text.PORTA_PA6_SetInterruptHandler
                0x0000000000000000        0x2 build/default/production/mcc_generated_files/src/pin_manager.o
 .text.PORTA_PA5_SetInterruptHandler
                0x0000000000000000        0x2 build/default/production/mcc_generated_files/src/pin_manager.o
 .text.PORTA_nCS_SetInterruptHandler
                0x0000000000000000        0x2 build/default/production/mcc_generated_files/src/pin_manager.o
 .text.PORTF_PF1_SetInterruptHandler
                0x0000000000000000        0xa build/default/production/mcc_generated_files/src/pin_manager.o
 .text.PORTF_PF0_SetInterruptHandler
                0x0000000000000000        0xa build/default/production/mcc_generated_files/src/pin_manager.o
 .text.PORTD_LED_YELLOW_SetInterruptHandler
                0x0000000000000000        0x2 build/default/production/mcc_generated_files/src/pin_manager.o
 .text.PORTF_PF3_SetInterruptHandler
                0x0000000000000000        0xa build/default/production/mcc_generated_files/src/pin_manager.o
 .text.PORTC_PC0_SetInterruptHandler
                0x0000000000000000        0x2 build/default/production/mcc_generated_files/src/pin_manager.o
 .text.PORTD_LED_RED_SetInterruptHandler
                0x0000000000000000        0x2 build/default/production/mcc_generated_files/src/pin_manager.o
 .text.PORTF_SW1_SetInterruptHandler
                0x0000000000000000        0xa build/default/production/mcc_generated_files/src/pin_manager.o
 .text.PORTD_LED_BLUE_SetInterruptHandler
                0x0000000000000000        0x2 build/default/production/mcc_generated_files/src/pin_manager.o
 .text.PORTF_WAKE_SetInterruptHandler
                0x0000000000000000        0xa build/default/production/mcc_generated_files/src/pin_manager.o
 .text.PORTD_LED_GREEN_SetInterruptHandler
                0x0000000000000000        0x2 build/default/production/mcc_generated_files/src/pin_manager.o
 .text.PORTC_PC1_SetInterruptHandler
                0x0000000000000000        0x2 build/default/production/mcc_generated_files/src/pin_manager.o
 .text          0x0000000000000000        0x0 build/default/production/mcc_generated_files/src/rtc.o
 .data          0x0000000000000000        0x0 build/default/production/mcc_generated_files/src/rtc.o
 .bss           0x0000000000000000        0x0 build/default/production/mcc_generated_files/src/rtc.o
 .text.RTC_SetCMPIsrCallback
                0x0000000000000000        0xa build/default/production/mcc_generated_files/src/rtc.o
 .text.RTC_SetPITIsrCallback
                0x0000000000000000        0xa build/default/production/mcc_generated_files/src/rtc.o
 .text.RTC_WritePeroid
                0x0000000000000000       0x16 build/default/production/mcc_generated_files/src/rtc.o
 .text.RTC_ReadPeriod
                0x0000000000000000        0xa build/default/production/mcc_generated_files/src/rtc.o
 .text.RTC_EnableCMPInterrupt
                0x0000000000000000        0xc build/default/production/mcc_generated_files/src/rtc.o
 .text.RTC_DisableCMPInterrupt
                0x0000000000000000        0xc build/default/production/mcc_generated_files/src/rtc.o
 .text.RTC_EnablePITInterrupt
                0x0000000000000000        0xc build/default/production/mcc_generated_files/src/rtc.o
 .text.RTC_DisablePITInterrupt
                0x0000000000000000        0xc build/default/production/mcc_generated_files/src/rtc.o
 .text          0x0000000000000000        0x0 build/default/production/mcc_generated_files/src/spi0.o
 .data          0x0000000000000000        0x0 build/default/production/mcc_generated_files/src/spi0.o
 .bss           0x0000000000000000        0x0 build/default/production/mcc_generated_files/src/spi0.o
 .text.SPI0_Enable
                0x0000000000000000        0xc build/default/production/mcc_generated_files/src/spi0.o
 .text.SPI0_Disable
                0x0000000000000000        0xc build/default/production/mcc_generated_files/src/spi0.o
 .text.SPI0_Selected
                0x0000000000000000        0x4 build/default/production/mcc_generated_files/src/spi0.o
 .text.SPI0_GetRxData
                0x0000000000000000        0x6 build/default/production/mcc_generated_files/src/spi0.o
 .text.SPI0_WriteTxData
                0x0000000000000000        0x6 build/default/production/mcc_generated_files/src/spi0.o
 .text.SPI0_WaitDataready
                0x0000000000000000        0xc build/default/production/mcc_generated_files/src/spi0.o
 .text          0x0000000000000000        0x0 build/default/production/mcc_generated_files/winc/driver/winc_asic.o
 .data          0x0000000000000000        0x0 build/default/production/mcc_generated_files/winc/driver/winc_asic.o
 .bss           0x0000000000000000        0x0 build/default/production/mcc_generated_files/winc/driver/winc_asic.o
 .text.winc_chip_reset
                0x0000000000000000       0x20 build/default/production/mcc_generated_files/winc/driver/winc_asic.o
 .text.winc_chip_deinit
                0x0000000000000000       0x1e build/default/production/mcc_generated_files/winc/driver/winc_asic.o
 .text.winc_chip_get_otp_mac_address
                0x0000000000000000       0xc0 build/default/production/mcc_generated_files/winc/driver/winc_asic.o
 .text.winc_chip_get_mac_address
                0x0000000000000000       0x90 build/default/production/mcc_generated_files/winc/driver/winc_asic.o
 .text          0x0000000000000000        0x0 build/default/production/mcc_generated_files/winc/driver/winc_hif.o
 .data          0x0000000000000000        0x0 build/default/production/mcc_generated_files/winc/driver/winc_hif.o
 .bss           0x0000000000000000        0x0 build/default/production/mcc_generated_files/winc/driver/winc_hif.o
 .text.winc_hif_set_power_save
                0x0000000000000000        0x6 build/default/production/mcc_generated_files/winc/driver/winc_hif.o
 .text          0x0000000000000000        0x0 build/default/production/mcc_generated_files/winc/driver/winc_spi.o
 .data          0x0000000000000000        0x0 build/default/production/mcc_generated_files/winc/driver/winc_spi.o
 .bss           0x0000000000000000        0x0 build/default/production/mcc_generated_files/winc/driver/winc_spi.o
 .text.winc_bus_write_reg_no_rsp
                0x0000000000000000       0x88 build/default/production/mcc_generated_files/winc/driver/winc_spi.o
 .text          0x0000000000000000        0x0 build/default/production/mcc_generated_files/winc/driver/winc_adapter.o
 .data          0x0000000000000000        0x0 build/default/production/mcc_generated_files/winc/driver/winc_adapter.o
 .bss           0x0000000000000000        0x0 build/default/production/mcc_generated_files/winc/driver/winc_adapter.o
 .text          0x0000000000000000        0x0 build/default/production/mcc_generated_files/winc/driver/winc_drv.o
 .data          0x0000000000000000        0x0 build/default/production/mcc_generated_files/winc/driver/winc_drv.o
 .bss           0x0000000000000000        0x0 build/default/production/mcc_generated_files/winc/driver/winc_drv.o
 .text.winc_drv_deinit
                0x0000000000000000       0x34 build/default/production/mcc_generated_files/winc/driver/winc_drv.o
 .text          0x0000000000000000        0x0 build/default/production/mcc_generated_files/winc/m2m/m2m_crypto.o
 .data          0x0000000000000000        0x0 build/default/production/mcc_generated_files/winc/m2m/m2m_crypto.o
 .bss           0x0000000000000000        0x0 build/default/production/mcc_generated_files/winc/m2m/m2m_crypto.o
 .debug_info    0x0000000000000000      0x259 build/default/production/mcc_generated_files/winc/m2m/m2m_crypto.o
 .debug_abbrev  0x0000000000000000       0x1b build/default/production/mcc_generated_files/winc/m2m/m2m_crypto.o
 .debug_aranges
                0x0000000000000000       0x18 build/default/production/mcc_generated_files/winc/m2m/m2m_crypto.o
 .debug_line    0x0000000000000000       0x1a build/default/production/mcc_generated_files/winc/m2m/m2m_crypto.o
 .debug_str     0x0000000000000000        0x0 build/default/production/mcc_generated_files/winc/m2m/m2m_crypto.o
 .comment       0x0000000000000000       0x30 build/default/production/mcc_generated_files/winc/m2m/m2m_crypto.o
 .text          0x0000000000000000        0x0 build/default/production/mcc_generated_files/winc/m2m/m2m_fwinfo.o
 .data          0x0000000000000000        0x0 build/default/production/mcc_generated_files/winc/m2m/m2m_fwinfo.o
 .bss           0x0000000000000000        0x0 build/default/production/mcc_generated_files/winc/m2m/m2m_fwinfo.o
 .text          0x0000000000000000        0x0 build/default/production/mcc_generated_files/winc/m2m/m2m_ssl.o
 .data          0x0000000000000000        0x0 build/default/production/mcc_generated_files/winc/m2m/m2m_ssl.o
 .bss           0x0000000000000000        0x0 build/default/production/mcc_generated_files/winc/m2m/m2m_ssl.o
 .text.m2m_ssl_send_certs_to_winc
                0x0000000000000000      0x212 build/default/production/mcc_generated_files/winc/m2m/m2m_ssl.o
 .text          0x0000000000000000        0x0 build/default/production/mcc_generated_files/winc/m2m/m2m_periph.o
 .data          0x0000000000000000        0x0 build/default/production/mcc_generated_files/winc/m2m/m2m_periph.o
 .bss           0x0000000000000000        0x0 build/default/production/mcc_generated_files/winc/m2m/m2m_periph.o
 .debug_info    0x0000000000000000      0x259 build/default/production/mcc_generated_files/winc/m2m/m2m_periph.o
 .debug_abbrev  0x0000000000000000       0x1b build/default/production/mcc_generated_files/winc/m2m/m2m_periph.o
 .debug_aranges
                0x0000000000000000       0x18 build/default/production/mcc_generated_files/winc/m2m/m2m_periph.o
 .debug_line    0x0000000000000000       0x1a build/default/production/mcc_generated_files/winc/m2m/m2m_periph.o
 .debug_str     0x0000000000000000        0x0 build/default/production/mcc_generated_files/winc/m2m/m2m_periph.o
 .comment       0x0000000000000000       0x30 build/default/production/mcc_generated_files/winc/m2m/m2m_periph.o
 .text          0x0000000000000000        0x0 build/default/production/mcc_generated_files/winc/m2m/m2m_wifi.o
 .data          0x0000000000000000        0x0 build/default/production/mcc_generated_files/winc/m2m/m2m_wifi.o
 .bss           0x0000000000000000        0x0 build/default/production/mcc_generated_files/winc/m2m/m2m_wifi.o
 .text.m2m_wifi_send_crl
                0x0000000000000000       0x3c build/default/production/mcc_generated_files/winc/m2m/m2m_wifi.o
 .text.m2m_wifi_deinit
                0x0000000000000000       0x10 build/default/production/mcc_generated_files/winc/m2m/m2m_wifi.o
 .text.m2m_wifi_delete_sc
                0x0000000000000000       0x3a build/default/production/mcc_generated_files/winc/m2m/m2m_wifi.o
 .text.m2m_wifi_connect_1x_mschap2
                0x0000000000000000        0x4 build/default/production/mcc_generated_files/winc/m2m/m2m_wifi.o
 .text.m2m_wifi_connect_1x_tls
                0x0000000000000000        0x4 build/default/production/mcc_generated_files/winc/m2m/m2m_wifi.o
 .text.m2m_wifi_set_mac_address
                0x0000000000000000       0x3c build/default/production/mcc_generated_files/winc/m2m/m2m_wifi.o
 .text.m2m_wifi_set_static_ip
                0x0000000000000000       0x10 build/default/production/mcc_generated_files/winc/m2m/m2m_wifi.o
 .text.m2m_wifi_enable_dhcp
                0x0000000000000000       0x1a build/default/production/mcc_generated_files/winc/m2m/m2m_wifi.o
 .text.m2m_wifi_set_lsn_int
                0x0000000000000000       0x10 build/default/production/mcc_generated_files/winc/m2m/m2m_wifi.o
 .text.m2m_wifi_set_cust_InfoElement
                0x0000000000000000       0x28 build/default/production/mcc_generated_files/winc/m2m/m2m_wifi.o
 .text.m2m_wifi_set_scan_options
                0x0000000000000000       0x46 build/default/production/mcc_generated_files/winc/m2m/m2m_wifi.o
 .text.m2m_wifi_set_scan_region
                0x0000000000000000       0x2e build/default/production/mcc_generated_files/winc/m2m/m2m_wifi.o
 .text.m2m_wifi_request_scan
                0x0000000000000000       0x52 build/default/production/mcc_generated_files/winc/m2m/m2m_wifi.o
 .text.m2m_wifi_request_scan_passive
                0x0000000000000000       0x56 build/default/production/mcc_generated_files/winc/m2m/m2m_wifi.o
 .text.m2m_wifi_request_scan_ssid_list
                0x0000000000000000       0xc2 build/default/production/mcc_generated_files/winc/m2m/m2m_wifi.o
 .text.m2m_wifi_wps
                0x0000000000000000       0x46 build/default/production/mcc_generated_files/winc/m2m/m2m_wifi.o
 .text.m2m_wifi_wps_disable
                0x0000000000000000       0x12 build/default/production/mcc_generated_files/winc/m2m/m2m_wifi.o
 .text.m2m_wifi_req_client_ctrl
                0x0000000000000000        0x4 build/default/production/mcc_generated_files/winc/m2m/m2m_wifi.o
 .text.m2m_wifi_req_server_init
                0x0000000000000000        0x4 build/default/production/mcc_generated_files/winc/m2m/m2m_wifi.o
 .text.m2m_wifi_p2p
                0x0000000000000000       0x3c build/default/production/mcc_generated_files/winc/m2m/m2m_wifi.o
 .text.m2m_wifi_p2p_disconnect
                0x0000000000000000       0x12 build/default/production/mcc_generated_files/winc/m2m/m2m_wifi.o
 .text.m2m_wifi_enable_ap_ext
                0x0000000000000000       0x46 build/default/production/mcc_generated_files/winc/m2m/m2m_wifi.o
 .text.m2m_wifi_enable_ap
                0x0000000000000000       0x6e build/default/production/mcc_generated_files/winc/m2m/m2m_wifi.o
 .text.m2m_wifi_set_gains
                0x0000000000000000       0x18 build/default/production/mcc_generated_files/winc/m2m/m2m_wifi.o
 .text.m2m_wifi_disable_ap
                0x0000000000000000       0x12 build/default/production/mcc_generated_files/winc/m2m/m2m_wifi.o
 .text.m2m_wifi_req_curr_rssi
                0x0000000000000000       0x12 build/default/production/mcc_generated_files/winc/m2m/m2m_wifi.o
 .text.m2m_wifi_send_ethernet_pkt
                0x0000000000000000       0x6e build/default/production/mcc_generated_files/winc/m2m/m2m_wifi.o
 .text.m2m_wifi_get_otp_mac_address
                0x0000000000000000       0x3c build/default/production/mcc_generated_files/winc/m2m/m2m_wifi.o
 .text.m2m_wifi_get_mac_address
                0x0000000000000000       0x2a build/default/production/mcc_generated_files/winc/m2m/m2m_wifi.o
 .text.m2m_wifi_req_scan_result
                0x0000000000000000       0x2c build/default/production/mcc_generated_files/winc/m2m/m2m_wifi.o
 .text.m2m_wifi_get_num_ap_found
                0x0000000000000000        0x6 build/default/production/mcc_generated_files/winc/m2m/m2m_wifi.o
 .text.m2m_wifi_get_sleep_mode
                0x0000000000000000        0x6 build/default/production/mcc_generated_files/winc/m2m/m2m_wifi.o
 .text.m2m_wifi_set_sleep_mode
                0x0000000000000000       0x4c build/default/production/mcc_generated_files/winc/m2m/m2m_wifi.o
 .text.m2m_wifi_request_sleep
                0x0000000000000000       0x42 build/default/production/mcc_generated_files/winc/m2m/m2m_wifi.o
 .text.m2m_wifi_set_device_name
                0x0000000000000000       0x42 build/default/production/mcc_generated_files/winc/m2m/m2m_wifi.o
 .text.m2m_wifi_stop_provision_mode
                0x0000000000000000       0x12 build/default/production/mcc_generated_files/winc/m2m/m2m_wifi.o
 .text.m2m_wifi_get_connection_info
                0x0000000000000000       0x12 build/default/production/mcc_generated_files/winc/m2m/m2m_wifi.o
 .text.m2m_wifi_set_system_time
                0x0000000000000000       0x32 build/default/production/mcc_generated_files/winc/m2m/m2m_wifi.o
 .text.m2m_wifi_enable_sntp
                0x0000000000000000       0x1a build/default/production/mcc_generated_files/winc/m2m/m2m_wifi.o
 .text.m2m_wifi_set_power_profile
                0x0000000000000000       0x2c build/default/production/mcc_generated_files/winc/m2m/m2m_wifi.o
 .text.m2m_wifi_set_tx_power
                0x0000000000000000       0x2c build/default/production/mcc_generated_files/winc/m2m/m2m_wifi.o
 .text.m2m_wifi_set_gain_table_idx
                0x0000000000000000       0x2c build/default/production/mcc_generated_files/winc/m2m/m2m_wifi.o
 .text.m2m_wifi_enable_firmware_logs
                0x0000000000000000       0x2c build/default/production/mcc_generated_files/winc/m2m/m2m_wifi.o
 .text.m2m_wifi_set_battery_voltage
                0x0000000000000000       0x36 build/default/production/mcc_generated_files/winc/m2m/m2m_wifi.o
 .text.m2m_wifi_prng_get_random_bytes
                0x0000000000000000       0x52 build/default/production/mcc_generated_files/winc/m2m/m2m_wifi.o
 .text.m2m_wifi_conf_auto_rate
                0x0000000000000000       0x10 build/default/production/mcc_generated_files/winc/m2m/m2m_wifi.o
 .text.m2m_wifi_get_state
                0x0000000000000000        0x6 build/default/production/mcc_generated_files/winc/m2m/m2m_wifi.o
 .text.m2m_wifi_enable_roaming
                0x0000000000000000       0x38 build/default/production/mcc_generated_files/winc/m2m/m2m_wifi.o
 .text.m2m_wifi_disable_roaming
                0x0000000000000000       0x2c build/default/production/mcc_generated_files/winc/m2m/m2m_wifi.o
 .bss.genuPsMode
                0x0000000000000000        0x1 build/default/production/mcc_generated_files/winc/m2m/m2m_wifi.o
 .text          0x0000000000000000        0x0 build/default/production/mcc_generated_files/winc/m2m/m2m_ota.o
 .data          0x0000000000000000        0x0 build/default/production/mcc_generated_files/winc/m2m/m2m_ota.o
 .bss           0x0000000000000000        0x0 build/default/production/mcc_generated_files/winc/m2m/m2m_ota.o
 .text.m2m_ota_cb
                0x0000000000000000      0x186 build/default/production/mcc_generated_files/winc/m2m/m2m_ota.o
 .text.m2m_ota_init
                0x0000000000000000       0x22 build/default/production/mcc_generated_files/winc/m2m/m2m_ota.o
 .text.m2m_ota_notif_set_url
                0x0000000000000000       0x1a build/default/production/mcc_generated_files/winc/m2m/m2m_ota.o
 .text.m2m_ota_notif_check_for_update
                0x0000000000000000       0x12 build/default/production/mcc_generated_files/winc/m2m/m2m_ota.o
 .text.m2m_ota_notif_sched
                0x0000000000000000       0x12 build/default/production/mcc_generated_files/winc/m2m/m2m_ota.o
 .text.m2m_ota_start_update
                0x0000000000000000       0x1a build/default/production/mcc_generated_files/winc/m2m/m2m_ota.o
 .text.m2m_ota_rollback
                0x0000000000000000       0x12 build/default/production/mcc_generated_files/winc/m2m/m2m_ota.o
 .text.m2m_ota_abort
                0x0000000000000000       0x12 build/default/production/mcc_generated_files/winc/m2m/m2m_ota.o
 .text.m2m_ota_switch_firmware
                0x0000000000000000       0x12 build/default/production/mcc_generated_files/winc/m2m/m2m_ota.o
 .text.m2m_ota_get_firmware_version
                0x0000000000000000       0x32 build/default/production/mcc_generated_files/winc/m2m/m2m_ota.o
 .text.m2m_ota_host_file_get
                0x0000000000000000       0x60 build/default/production/mcc_generated_files/winc/m2m/m2m_ota.o
 .text.m2m_ota_host_file_read_hif
                0x0000000000000000       0x5e build/default/production/mcc_generated_files/winc/m2m/m2m_ota.o
 .text.m2m_ota_host_file_read_spi
                0x0000000000000000      0x140 build/default/production/mcc_generated_files/winc/m2m/m2m_ota.o
 .text.m2m_ota_host_file_erase
                0x0000000000000000       0x3c build/default/production/mcc_generated_files/winc/m2m/m2m_ota.o
 .bss.u32FlashHFDSize.3514
                0x0000000000000000        0x4 build/default/production/mcc_generated_files/winc/m2m/m2m_ota.o
 .bss.u32FlashHFDStart.3513
                0x0000000000000000        0x4 build/default/production/mcc_generated_files/winc/m2m/m2m_ota.o
 .data.gu8CurrFileHandlerID
                0x0000000000000000        0x1 build/default/production/mcc_generated_files/winc/m2m/m2m_ota.o
 .bss.FileBlock
                0x0000000000000000        0x8 build/default/production/mcc_generated_files/winc/m2m/m2m_ota.o
 .bss.gpfHFDEraseCb
                0x0000000000000000        0x2 build/default/production/mcc_generated_files/winc/m2m/m2m_ota.o
 .bss.gpfHFDReadCb
                0x0000000000000000        0x2 build/default/production/mcc_generated_files/winc/m2m/m2m_ota.o
 .bss.gpfHFDGetCb
                0x0000000000000000        0x2 build/default/production/mcc_generated_files/winc/m2m/m2m_ota.o
 .bss.gpfOtaNotifCb
                0x0000000000000000        0x2 build/default/production/mcc_generated_files/winc/m2m/m2m_ota.o
 .bss.gpfOtaUpdateCb
                0x0000000000000000        0x2 build/default/production/mcc_generated_files/winc/m2m/m2m_ota.o
 .debug_info    0x0000000000000000     0x18f7 build/default/production/mcc_generated_files/winc/m2m/m2m_ota.o
 .debug_abbrev  0x0000000000000000      0x240 build/default/production/mcc_generated_files/winc/m2m/m2m_ota.o
 .debug_loc     0x0000000000000000      0xa54 build/default/production/mcc_generated_files/winc/m2m/m2m_ota.o
 .debug_aranges
                0x0000000000000000       0x88 build/default/production/mcc_generated_files/winc/m2m/m2m_ota.o
 .debug_ranges  0x0000000000000000       0x78 build/default/production/mcc_generated_files/winc/m2m/m2m_ota.o
 .debug_line    0x0000000000000000      0x55b build/default/production/mcc_generated_files/winc/m2m/m2m_ota.o
 .debug_str     0x0000000000000000      0x11b build/default/production/mcc_generated_files/winc/m2m/m2m_ota.o
 .comment       0x0000000000000000       0x30 build/default/production/mcc_generated_files/winc/m2m/m2m_ota.o
 .debug_frame   0x0000000000000000      0x17c build/default/production/mcc_generated_files/winc/m2m/m2m_ota.o
 .text          0x0000000000000000        0x0 build/default/production/mcc_generated_files/winc/socket/socket.o
 .data          0x0000000000000000        0x0 build/default/production/mcc_generated_files/winc/socket/socket.o
 .bss           0x0000000000000000        0x0 build/default/production/mcc_generated_files/winc/socket/socket.o
 .text.registerSocketEventCallback
                0x0000000000000000        0xa build/default/production/mcc_generated_files/winc/socket/socket.o
 .text.registerSocketResolveCallback
                0x0000000000000000        0xa build/default/production/mcc_generated_files/winc/socket/socket.o
 .text.bind     0x0000000000000000       0xb6 build/default/production/mcc_generated_files/winc/socket/socket.o
 .text.listen   0x0000000000000000       0x74 build/default/production/mcc_generated_files/winc/socket/socket.o
 .text.accept   0x0000000000000000       0x22 build/default/production/mcc_generated_files/winc/socket/socket.o
 .text.sendto   0x0000000000000000       0xf8 build/default/production/mcc_generated_files/winc/socket/socket.o
 .text.recvfrom
                0x0000000000000000      0x100 build/default/production/mcc_generated_files/winc/socket/socket.o
 .text.inet_addr
                0x0000000000000000      0x186 build/default/production/mcc_generated_files/winc/socket/socket.o
 .text.inet_ntop
                0x0000000000000000       0xce build/default/production/mcc_generated_files/winc/socket/socket.o
 .text.setsockopt
                0x0000000000000000      0x214 build/default/production/mcc_generated_files/winc/socket/socket.o
 .text.getsockopt
                0x0000000000000000        0x4 build/default/production/mcc_generated_files/winc/socket/socket.o
 .text.m2m_ping_req
                0x0000000000000000       0x98 build/default/production/mcc_generated_files/winc/socket/socket.o
 .text.sslEnableCertExpirationCheck
                0x0000000000000000       0x3c build/default/production/mcc_generated_files/winc/socket/socket.o
 .text.IsSocketReady
                0x0000000000000000        0x6 build/default/production/mcc_generated_files/winc/socket/socket.o
 .text          0x0000000000000000        0x0 build/default/production/mcc_generated_files/winc/spi_flash/flexible_flash.o
 .data          0x0000000000000000        0x0 build/default/production/mcc_generated_files/winc/spi_flash/flexible_flash.o
 .bss           0x0000000000000000        0x0 build/default/production/mcc_generated_files/winc/spi_flash/flexible_flash.o
 .text.spi_flexible_flash_find_section
                0x0000000000000000      0x138 build/default/production/mcc_generated_files/winc/spi_flash/flexible_flash.o
 .debug_info    0x0000000000000000      0x445 build/default/production/mcc_generated_files/winc/spi_flash/flexible_flash.o
 .debug_abbrev  0x0000000000000000       0xd3 build/default/production/mcc_generated_files/winc/spi_flash/flexible_flash.o
 .debug_loc     0x0000000000000000      0x227 build/default/production/mcc_generated_files/winc/spi_flash/flexible_flash.o
 .debug_aranges
                0x0000000000000000       0x20 build/default/production/mcc_generated_files/winc/spi_flash/flexible_flash.o
 .debug_ranges  0x0000000000000000       0x10 build/default/production/mcc_generated_files/winc/spi_flash/flexible_flash.o
 .debug_line    0x0000000000000000      0x123 build/default/production/mcc_generated_files/winc/spi_flash/flexible_flash.o
 .debug_str     0x0000000000000000        0xf build/default/production/mcc_generated_files/winc/spi_flash/flexible_flash.o
 .comment       0x0000000000000000       0x30 build/default/production/mcc_generated_files/winc/spi_flash/flexible_flash.o
 .debug_frame   0x0000000000000000       0x7c build/default/production/mcc_generated_files/winc/spi_flash/flexible_flash.o
 .text          0x0000000000000000        0x0 build/default/production/mcc_generated_files/winc/spi_flash/spi_flash.o
 .data          0x0000000000000000        0x0 build/default/production/mcc_generated_files/winc/spi_flash/spi_flash.o
 .bss           0x0000000000000000        0x0 build/default/production/mcc_generated_files/winc/spi_flash/spi_flash.o
 .text.spi_flash_write_enable
                0x0000000000000000       0xa6 build/default/production/mcc_generated_files/winc/spi_flash/spi_flash.o
 .text.spi_flash_read_status_reg
                0x0000000000000000       0xd4 build/default/production/mcc_generated_files/winc/spi_flash/spi_flash.o
 .text.spi_flash_pp
                0x0000000000000000      0x1f2 build/default/production/mcc_generated_files/winc/spi_flash/spi_flash.o
 .text.spi_flash_enable
                0x0000000000000000      0x160 build/default/production/mcc_generated_files/winc/spi_flash/spi_flash.o
 .text.spi_flash_write
                0x0000000000000000       0xfa build/default/production/mcc_generated_files/winc/spi_flash/spi_flash.o
 .text.spi_flash_erase
                0x0000000000000000      0x1a4 build/default/production/mcc_generated_files/winc/spi_flash/spi_flash.o
 .text.spi_flash_get_size
                0x0000000000000000      0x14e build/default/production/mcc_generated_files/winc/spi_flash/spi_flash.o
 .bss.gu32InternalFlashSize
                0x0000000000000000        0x4 build/default/production/mcc_generated_files/winc/spi_flash/spi_flash.o
 .text          0x0000000000000000        0x0 build/default/production/mcc_generated_files/device_config.o
 .data          0x0000000000000000        0x0 build/default/production/mcc_generated_files/device_config.o
 .bss           0x0000000000000000        0x0 build/default/production/mcc_generated_files/device_config.o
 .text          0x0000000000000000        0x0 build/default/production/mcc_generated_files/debug_print.o
 .data          0x0000000000000000        0x0 build/default/production/mcc_generated_files/debug_print.o
 .bss           0x0000000000000000        0x0 build/default/production/mcc_generated_files/debug_print.o
 .text          0x0000000000000000        0x0 build/default/production/mcc_generated_files/application_manager.o
 .data          0x0000000000000000        0x0 build/default/production/mcc_generated_files/application_manager.o
 .bss           0x0000000000000000        0x0 build/default/production/mcc_generated_files/application_manager.o
 .text.OLED_Data
                0x0000000000000000        0xc build/default/production/mcc_generated_files/application_manager.o
 .text.OLED_init2
                0x0000000000000000       0x98 build/default/production/mcc_generated_files/application_manager.o
 .text.OLED_fill
                0x0000000000000000       0x32 build/default/production/mcc_generated_files/application_manager.o
 .text.OLED_clear_screen
                0x0000000000000000        0x8 build/default/production/mcc_generated_files/application_manager.o
 .text.OLED_clear_buffer
                0x0000000000000000       0x12 build/default/production/mcc_generated_files/application_manager.o
 .text.OLED_cursor
                0x0000000000000000       0x40 build/default/production/mcc_generated_files/application_manager.o
 .text.OLED_print_char
                0x0000000000000000       0x44 build/default/production/mcc_generated_files/application_manager.o
 .text.OLED_print_string
                0x0000000000000000       0x44 build/default/production/mcc_generated_files/application_manager.o
 .text.OLED_print_chr
                0x0000000000000000      0x12a build/default/production/mcc_generated_files/application_manager.o
 .text.OLED_print_int
                0x0000000000000000      0x398 build/default/production/mcc_generated_files/application_manager.o
 .text.OLED_print_decimal
                0x0000000000000000      0x152 build/default/production/mcc_generated_files/application_manager.o
 .text.OLED_print_float
                0x0000000000000000      0x1d0 build/default/production/mcc_generated_files/application_manager.o
 .text.Draw_Pixel
                0x0000000000000000       0x6a build/default/production/mcc_generated_files/application_manager.o
 .text.Draw_Line
                0x0000000000000000      0x13e build/default/production/mcc_generated_files/application_manager.o
 .text.Draw_Rectangle
                0x0000000000000000      0x12e build/default/production/mcc_generated_files/application_manager.o
 .text.Draw_Circle
                0x0000000000000000      0x1ce build/default/production/mcc_generated_files/application_manager.o
 .bss.data      0x0000000000000000       0x14 build/default/production/mcc_generated_files/application_manager.o
 .rodata.font_regular
                0x0000000000000000      0x228 build/default/production/mcc_generated_files/application_manager.o
 .text          0x0000000000000000        0x0 build/default/production/mcc_generated_files/led.o
 .data          0x0000000000000000        0x0 build/default/production/mcc_generated_files/led.o
 .bss           0x0000000000000000        0x0 build/default/production/mcc_generated_files/led.o
 .text          0x0000000000000000        0x0 build/default/production/mcc_generated_files/delay.o
 .data          0x0000000000000000        0x0 build/default/production/mcc_generated_files/delay.o
 .bss           0x0000000000000000        0x0 build/default/production/mcc_generated_files/delay.o
 .text.DELAY_microseconds
                0x0000000000000000       0x30 build/default/production/mcc_generated_files/delay.o
 .text          0x0000000000000000        0x0 build/default/production/mcc_generated_files/mcc.o
 .data          0x0000000000000000        0x0 build/default/production/mcc_generated_files/mcc.o
 .bss           0x0000000000000000        0x0 build/default/production/mcc_generated_files/mcc.o
 .text          0x0000000000000000        0x0 build/default/production/mcc_generated_files/CryptoAuth_init.o
 .data          0x0000000000000000        0x0 build/default/production/mcc_generated_files/CryptoAuth_init.o
 .bss           0x0000000000000000        0x0 build/default/production/mcc_generated_files/CryptoAuth_init.o
 .data._gMyDevice
                0x0000000000000000        0x4 build/default/production/mcc_generated_files/CryptoAuth_init.o
 COMMON         0x0000000000000000       0x17 build/default/production/mcc_generated_files/CryptoAuth_init.o
 .text          0x0000000000000000        0x0 build/default/production/mcc_generated_files/time_service.o
 .data          0x0000000000000000        0x0 build/default/production/mcc_generated_files/time_service.o
 .bss           0x0000000000000000        0x0 build/default/production/mcc_generated_files/time_service.o
 .text.timeTicker
                0x0000000000000000       0x30 build/default/production/mcc_generated_files/time_service.o
 .text.TIME_setCurrent
                0x0000000000000000       0x12 build/default/production/mcc_generated_files/time_service.o
 .text.TIME_startTask
                0x0000000000000000       0x12 build/default/production/mcc_generated_files/time_service.o
 .text.TIME_endTask
                0x0000000000000000        0xa build/default/production/mcc_generated_files/time_service.o
 .text.TIME_getOffset_UNIX
                0x0000000000000000        0xa build/default/production/mcc_generated_files/time_service.o
 .data.timeTask
                0x0000000000000000        0xa build/default/production/mcc_generated_files/time_service.o
 .text          0x0000000000000000        0x0 build/default/production/mcc_generated_files/sensors_handling.o
 .data          0x0000000000000000        0x0 build/default/production/mcc_generated_files/sensors_handling.o
 .bss           0x0000000000000000        0x0 build/default/production/mcc_generated_files/sensors_handling.o
 .text.SENSORS_getLightValue
                0x0000000000000000        0x8 build/default/production/mcc_generated_files/sensors_handling.o
 .text.SENSORS_getTempValue
                0x0000000000000000       0x6a build/default/production/mcc_generated_files/sensors_handling.o
 .debug_info    0x0000000000000000      0x338 build/default/production/mcc_generated_files/sensors_handling.o
 .debug_abbrev  0x0000000000000000       0x82 build/default/production/mcc_generated_files/sensors_handling.o
 .debug_loc     0x0000000000000000       0x43 build/default/production/mcc_generated_files/sensors_handling.o
 .debug_aranges
                0x0000000000000000       0x28 build/default/production/mcc_generated_files/sensors_handling.o
 .debug_ranges  0x0000000000000000       0x18 build/default/production/mcc_generated_files/sensors_handling.o
 .debug_line    0x0000000000000000      0x12e build/default/production/mcc_generated_files/sensors_handling.o
 .debug_str     0x0000000000000000       0x29 build/default/production/mcc_generated_files/sensors_handling.o
 .comment       0x0000000000000000       0x30 build/default/production/mcc_generated_files/sensors_handling.o
 .debug_frame   0x0000000000000000       0x40 build/default/production/mcc_generated_files/sensors_handling.o
 .text          0x0000000000000000        0x0 build/default/production/main.o
 .data          0x0000000000000000        0x0 build/default/production/main.o
 .bss           0x0000000000000000        0x0 build/default/production/main.o
 .text          0x0000000000000000        0x0 build/default/production/mcc_generated_files/src/usart1.o
 .data          0x0000000000000000        0x0 build/default/production/mcc_generated_files/src/usart1.o
 .bss           0x0000000000000000        0x0 build/default/production/mcc_generated_files/src/usart1.o
 .text.USART1_Enable
                0x0000000000000000        0xc build/default/production/mcc_generated_files/src/usart1.o
 .text.USART1_EnableRx
                0x0000000000000000        0xc build/default/production/mcc_generated_files/src/usart1.o
 .text.USART1_EnableTx
                0x0000000000000000        0xc build/default/production/mcc_generated_files/src/usart1.o
 .text.USART1_Disable
                0x0000000000000000        0xc build/default/production/mcc_generated_files/src/usart1.o
 .text.USART1_GetData
                0x0000000000000000        0x6 build/default/production/mcc_generated_files/src/usart1.o
 .text.USART1_IsTxReady
                0x0000000000000000        0xc build/default/production/mcc_generated_files/src/usart1.o
 .text.USART1_IsRxReady
                0x0000000000000000        0xc build/default/production/mcc_generated_files/src/usart1.o
 .text.USART1_IsTxBusy
                0x0000000000000000       0x10 build/default/production/mcc_generated_files/src/usart1.o
 .text.USART1_IsTxDone
                0x0000000000000000        0xc build/default/production/mcc_generated_files/src/usart1.o
 .text.USART1_Read
                0x0000000000000000       0x10 build/default/production/mcc_generated_files/src/usart1.o
 .text.USART1_Write
                0x0000000000000000       0x10 build/default/production/mcc_generated_files/src/usart1.o
 .text          0x0000000000000000        0x0 c:/program files/microchip/xc8/v2.31/avr/bin/../lib/gcc/avr/5.4.0/../../../../avr/lib/avrxmega3\libm.a(addsf3.o)
 .data          0x0000000000000000        0x0 c:/program files/microchip/xc8/v2.31/avr/bin/../lib/gcc/avr/5.4.0/../../../../avr/lib/avrxmega3\libm.a(addsf3.o)
 .bss           0x0000000000000000        0x0 c:/program files/microchip/xc8/v2.31/avr/bin/../lib/gcc/avr/5.4.0/../../../../avr/lib/avrxmega3\libm.a(addsf3.o)
 .text.avrlibc.fplib
                0x0000000000000000        0xe c:/program files/microchip/xc8/v2.31/avr/bin/../lib/gcc/avr/5.4.0/../../../../avr/lib/avrxmega3\libm.a(addsf3.o)
 .text          0x0000000000000000        0x0 c:/program files/microchip/xc8/v2.31/avr/bin/../lib/gcc/avr/5.4.0/../../../../avr/lib/avrxmega3\libm.a(addsf3x.o)
 .data          0x0000000000000000        0x0 c:/program files/microchip/xc8/v2.31/avr/bin/../lib/gcc/avr/5.4.0/../../../../avr/lib/avrxmega3\libm.a(addsf3x.o)
 .bss           0x0000000000000000        0x0 c:/program files/microchip/xc8/v2.31/avr/bin/../lib/gcc/avr/5.4.0/../../../../avr/lib/avrxmega3\libm.a(addsf3x.o)
 .text.avrlibc.fplib
                0x0000000000000000       0xce c:/program files/microchip/xc8/v2.31/avr/bin/../lib/gcc/avr/5.4.0/../../../../avr/lib/avrxmega3\libm.a(addsf3x.o)
 .text          0x0000000000000000        0x0 c:/program files/microchip/xc8/v2.31/avr/bin/../lib/gcc/avr/5.4.0/../../../../avr/lib/avrxmega3\libm.a(cmpsf2.o)
 .data          0x0000000000000000        0x0 c:/program files/microchip/xc8/v2.31/avr/bin/../lib/gcc/avr/5.4.0/../../../../avr/lib/avrxmega3\libm.a(cmpsf2.o)
 .bss           0x0000000000000000        0x0 c:/program files/microchip/xc8/v2.31/avr/bin/../lib/gcc/avr/5.4.0/../../../../avr/lib/avrxmega3\libm.a(cmpsf2.o)
 .text.avrlibc.fplib
                0x0000000000000000        0xa c:/program files/microchip/xc8/v2.31/avr/bin/../lib/gcc/avr/5.4.0/../../../../avr/lib/avrxmega3\libm.a(cmpsf2.o)
 .text          0x0000000000000000        0x0 c:/program files/microchip/xc8/v2.31/avr/bin/../lib/gcc/avr/5.4.0/../../../../avr/lib/avrxmega3\libm.a(fixsfsi.o)
 .data          0x0000000000000000        0x0 c:/program files/microchip/xc8/v2.31/avr/bin/../lib/gcc/avr/5.4.0/../../../../avr/lib/avrxmega3\libm.a(fixsfsi.o)
 .bss           0x0000000000000000        0x0 c:/program files/microchip/xc8/v2.31/avr/bin/../lib/gcc/avr/5.4.0/../../../../avr/lib/avrxmega3\libm.a(fixsfsi.o)
 .text.avrlibc.fplib
                0x0000000000000000        0xe c:/program files/microchip/xc8/v2.31/avr/bin/../lib/gcc/avr/5.4.0/../../../../avr/lib/avrxmega3\libm.a(fixsfsi.o)
 .text          0x0000000000000000        0x0 c:/program files/microchip/xc8/v2.31/avr/bin/../lib/gcc/avr/5.4.0/../../../../avr/lib/avrxmega3\libm.a(fixunssfsi.o)
 .data          0x0000000000000000        0x0 c:/program files/microchip/xc8/v2.31/avr/bin/../lib/gcc/avr/5.4.0/../../../../avr/lib/avrxmega3\libm.a(fixunssfsi.o)
 .bss           0x0000000000000000        0x0 c:/program files/microchip/xc8/v2.31/avr/bin/../lib/gcc/avr/5.4.0/../../../../avr/lib/avrxmega3\libm.a(fixunssfsi.o)
 .text.avrlibc.fplib
                0x0000000000000000       0x5e c:/program files/microchip/xc8/v2.31/avr/bin/../lib/gcc/avr/5.4.0/../../../../avr/lib/avrxmega3\libm.a(fixunssfsi.o)
 .text          0x0000000000000000        0x0 c:/program files/microchip/xc8/v2.31/avr/bin/../lib/gcc/avr/5.4.0/../../../../avr/lib/avrxmega3\libm.a(floatsisf.o)
 .data          0x0000000000000000        0x0 c:/program files/microchip/xc8/v2.31/avr/bin/../lib/gcc/avr/5.4.0/../../../../avr/lib/avrxmega3\libm.a(floatsisf.o)
 .bss           0x0000000000000000        0x0 c:/program files/microchip/xc8/v2.31/avr/bin/../lib/gcc/avr/5.4.0/../../../../avr/lib/avrxmega3\libm.a(floatsisf.o)
 .text.avrlibc.fplib
                0x0000000000000000       0x7a c:/program files/microchip/xc8/v2.31/avr/bin/../lib/gcc/avr/5.4.0/../../../../avr/lib/avrxmega3\libm.a(floatsisf.o)
 .text          0x0000000000000000        0x0 c:/program files/microchip/xc8/v2.31/avr/bin/../lib/gcc/avr/5.4.0/../../../../avr/lib/avrxmega3\libm.a(fp_cmp.o)
 .data          0x0000000000000000        0x0 c:/program files/microchip/xc8/v2.31/avr/bin/../lib/gcc/avr/5.4.0/../../../../avr/lib/avrxmega3\libm.a(fp_cmp.o)
 .bss           0x0000000000000000        0x0 c:/program files/microchip/xc8/v2.31/avr/bin/../lib/gcc/avr/5.4.0/../../../../avr/lib/avrxmega3\libm.a(fp_cmp.o)
 .text.avrlibc.fplib
                0x0000000000000000       0x48 c:/program files/microchip/xc8/v2.31/avr/bin/../lib/gcc/avr/5.4.0/../../../../avr/lib/avrxmega3\libm.a(fp_cmp.o)
 .text          0x0000000000000000        0x0 c:/program files/microchip/xc8/v2.31/avr/bin/../lib/gcc/avr/5.4.0/../../../../avr/lib/avrxmega3\libm.a(fp_inf.o)
 .data          0x0000000000000000        0x0 c:/program files/microchip/xc8/v2.31/avr/bin/../lib/gcc/avr/5.4.0/../../../../avr/lib/avrxmega3\libm.a(fp_inf.o)
 .bss           0x0000000000000000        0x0 c:/program files/microchip/xc8/v2.31/avr/bin/../lib/gcc/avr/5.4.0/../../../../avr/lib/avrxmega3\libm.a(fp_inf.o)
 .text.avrlibc.fplib
                0x0000000000000000        0xc c:/program files/microchip/xc8/v2.31/avr/bin/../lib/gcc/avr/5.4.0/../../../../avr/lib/avrxmega3\libm.a(fp_inf.o)
 .text          0x0000000000000000        0x0 c:/program files/microchip/xc8/v2.31/avr/bin/../lib/gcc/avr/5.4.0/../../../../avr/lib/avrxmega3\libm.a(fp_nan.o)
 .data          0x0000000000000000        0x0 c:/program files/microchip/xc8/v2.31/avr/bin/../lib/gcc/avr/5.4.0/../../../../avr/lib/avrxmega3\libm.a(fp_nan.o)
 .bss           0x0000000000000000        0x0 c:/program files/microchip/xc8/v2.31/avr/bin/../lib/gcc/avr/5.4.0/../../../../avr/lib/avrxmega3\libm.a(fp_nan.o)
 .text.avrlibc.fplib
                0x0000000000000000        0x6 c:/program files/microchip/xc8/v2.31/avr/bin/../lib/gcc/avr/5.4.0/../../../../avr/lib/avrxmega3\libm.a(fp_nan.o)
 .text          0x0000000000000000        0x0 c:/program files/microchip/xc8/v2.31/avr/bin/../lib/gcc/avr/5.4.0/../../../../avr/lib/avrxmega3\libm.a(fp_pscA.o)
 .data          0x0000000000000000        0x0 c:/program files/microchip/xc8/v2.31/avr/bin/../lib/gcc/avr/5.4.0/../../../../avr/lib/avrxmega3\libm.a(fp_pscA.o)
 .bss           0x0000000000000000        0x0 c:/program files/microchip/xc8/v2.31/avr/bin/../lib/gcc/avr/5.4.0/../../../../avr/lib/avrxmega3\libm.a(fp_pscA.o)
 .text.avrlibc.fplib
                0x0000000000000000        0xe c:/program files/microchip/xc8/v2.31/avr/bin/../lib/gcc/avr/5.4.0/../../../../avr/lib/avrxmega3\libm.a(fp_pscA.o)
 .text          0x0000000000000000        0x0 c:/program files/microchip/xc8/v2.31/avr/bin/../lib/gcc/avr/5.4.0/../../../../avr/lib/avrxmega3\libm.a(fp_pscB.o)
 .data          0x0000000000000000        0x0 c:/program files/microchip/xc8/v2.31/avr/bin/../lib/gcc/avr/5.4.0/../../../../avr/lib/avrxmega3\libm.a(fp_pscB.o)
 .bss           0x0000000000000000        0x0 c:/program files/microchip/xc8/v2.31/avr/bin/../lib/gcc/avr/5.4.0/../../../../avr/lib/avrxmega3\libm.a(fp_pscB.o)
 .text.avrlibc.fplib
                0x0000000000000000        0xe c:/program files/microchip/xc8/v2.31/avr/bin/../lib/gcc/avr/5.4.0/../../../../avr/lib/avrxmega3\libm.a(fp_pscB.o)
 .text          0x0000000000000000        0x0 c:/program files/microchip/xc8/v2.31/avr/bin/../lib/gcc/avr/5.4.0/../../../../avr/lib/avrxmega3\libm.a(fp_round.o)
 .data          0x0000000000000000        0x0 c:/program files/microchip/xc8/v2.31/avr/bin/../lib/gcc/avr/5.4.0/../../../../avr/lib/avrxmega3\libm.a(fp_round.o)
 .bss           0x0000000000000000        0x0 c:/program files/microchip/xc8/v2.31/avr/bin/../lib/gcc/avr/5.4.0/../../../../avr/lib/avrxmega3\libm.a(fp_round.o)
 .text.avrlibc.fplib
                0x0000000000000000       0x22 c:/program files/microchip/xc8/v2.31/avr/bin/../lib/gcc/avr/5.4.0/../../../../avr/lib/avrxmega3\libm.a(fp_round.o)
 .text          0x0000000000000000        0x0 c:/program files/microchip/xc8/v2.31/avr/bin/../lib/gcc/avr/5.4.0/../../../../avr/lib/avrxmega3\libm.a(fp_split3.o)
 .data          0x0000000000000000        0x0 c:/program files/microchip/xc8/v2.31/avr/bin/../lib/gcc/avr/5.4.0/../../../../avr/lib/avrxmega3\libm.a(fp_split3.o)
 .bss           0x0000000000000000        0x0 c:/program files/microchip/xc8/v2.31/avr/bin/../lib/gcc/avr/5.4.0/../../../../avr/lib/avrxmega3\libm.a(fp_split3.o)
 .text.avrlibc.fplib
                0x0000000000000000       0x44 c:/program files/microchip/xc8/v2.31/avr/bin/../lib/gcc/avr/5.4.0/../../../../avr/lib/avrxmega3\libm.a(fp_split3.o)
 .text          0x0000000000000000        0x0 c:/program files/microchip/xc8/v2.31/avr/bin/../lib/gcc/avr/5.4.0/../../../../avr/lib/avrxmega3\libm.a(fp_zero.o)
 .data          0x0000000000000000        0x0 c:/program files/microchip/xc8/v2.31/avr/bin/../lib/gcc/avr/5.4.0/../../../../avr/lib/avrxmega3\libm.a(fp_zero.o)
 .bss           0x0000000000000000        0x0 c:/program files/microchip/xc8/v2.31/avr/bin/../lib/gcc/avr/5.4.0/../../../../avr/lib/avrxmega3\libm.a(fp_zero.o)
 .text.avrlibc.fplib
                0x0000000000000000        0xe c:/program files/microchip/xc8/v2.31/avr/bin/../lib/gcc/avr/5.4.0/../../../../avr/lib/avrxmega3\libm.a(fp_zero.o)
 .text          0x0000000000000000        0x0 c:/program files/microchip/xc8/v2.31/avr/bin/../lib/gcc/avr/5.4.0/../../../../avr/lib/avrxmega3\libm.a(gesf2.o)
 .data          0x0000000000000000        0x0 c:/program files/microchip/xc8/v2.31/avr/bin/../lib/gcc/avr/5.4.0/../../../../avr/lib/avrxmega3\libm.a(gesf2.o)
 .bss           0x0000000000000000        0x0 c:/program files/microchip/xc8/v2.31/avr/bin/../lib/gcc/avr/5.4.0/../../../../avr/lib/avrxmega3\libm.a(gesf2.o)
 .text.avrlibc.fplib
                0x0000000000000000        0xa c:/program files/microchip/xc8/v2.31/avr/bin/../lib/gcc/avr/5.4.0/../../../../avr/lib/avrxmega3\libm.a(gesf2.o)
 .text          0x0000000000000000        0x0 c:/program files/microchip/xc8/v2.31/avr/bin/../lib/gcc/avr/5.4.0/../../../../avr/lib/avrxmega3\libm.a(mulsf3.o)
 .data          0x0000000000000000        0x0 c:/program files/microchip/xc8/v2.31/avr/bin/../lib/gcc/avr/5.4.0/../../../../avr/lib/avrxmega3\libm.a(mulsf3.o)
 .bss           0x0000000000000000        0x0 c:/program files/microchip/xc8/v2.31/avr/bin/../lib/gcc/avr/5.4.0/../../../../avr/lib/avrxmega3\libm.a(mulsf3.o)
 .text.avrlibc.fplib
                0x0000000000000000        0x8 c:/program files/microchip/xc8/v2.31/avr/bin/../lib/gcc/avr/5.4.0/../../../../avr/lib/avrxmega3\libm.a(mulsf3.o)
 .text          0x0000000000000000        0x0 c:/program files/microchip/xc8/v2.31/avr/bin/../lib/gcc/avr/5.4.0/../../../../avr/lib/avrxmega3\libm.a(mulsf3x.o)
 .data          0x0000000000000000        0x0 c:/program files/microchip/xc8/v2.31/avr/bin/../lib/gcc/avr/5.4.0/../../../../avr/lib/avrxmega3\libm.a(mulsf3x.o)
 .bss           0x0000000000000000        0x0 c:/program files/microchip/xc8/v2.31/avr/bin/../lib/gcc/avr/5.4.0/../../../../avr/lib/avrxmega3\libm.a(mulsf3x.o)
 .text.avrlibc.fplib
                0x0000000000000000       0xd4 c:/program files/microchip/xc8/v2.31/avr/bin/../lib/gcc/avr/5.4.0/../../../../avr/lib/avrxmega3\libm.a(mulsf3x.o)
 .text          0x0000000000000000        0x0 c:/program files/microchip/xc8/v2.31/avr/bin/../lib/gcc/avr/5.4.0/avrxmega3\libgcc.a(_udivmodhi4.o)
 .data          0x0000000000000000        0x0 c:/program files/microchip/xc8/v2.31/avr/bin/../lib/gcc/avr/5.4.0/avrxmega3\libgcc.a(_udivmodhi4.o)
 .bss           0x0000000000000000        0x0 c:/program files/microchip/xc8/v2.31/avr/bin/../lib/gcc/avr/5.4.0/avrxmega3\libgcc.a(_udivmodhi4.o)
 .text.libgcc.mul
                0x0000000000000000        0x0 c:/program files/microchip/xc8/v2.31/avr/bin/../lib/gcc/avr/5.4.0/avrxmega3\libgcc.a(_udivmodhi4.o)
 .text.libgcc   0x0000000000000000        0x0 c:/program files/microchip/xc8/v2.31/avr/bin/../lib/gcc/avr/5.4.0/avrxmega3\libgcc.a(_udivmodhi4.o)
 .text.libgcc.prologue
                0x0000000000000000        0x0 c:/program files/microchip/xc8/v2.31/avr/bin/../lib/gcc/avr/5.4.0/avrxmega3\libgcc.a(_udivmodhi4.o)
 .text.libgcc.builtins
                0x0000000000000000        0x0 c:/program files/microchip/xc8/v2.31/avr/bin/../lib/gcc/avr/5.4.0/avrxmega3\libgcc.a(_udivmodhi4.o)
 .text.libgcc.fmul
                0x0000000000000000        0x0 c:/program files/microchip/xc8/v2.31/avr/bin/../lib/gcc/avr/5.4.0/avrxmega3\libgcc.a(_udivmodhi4.o)
 .text.libgcc.fixed
                0x0000000000000000        0x0 c:/program files/microchip/xc8/v2.31/avr/bin/../lib/gcc/avr/5.4.0/avrxmega3\libgcc.a(_udivmodhi4.o)
 .text          0x0000000000000000        0x0 c:/program files/microchip/xc8/v2.31/avr/bin/../lib/gcc/avr/5.4.0/avrxmega3\libgcc.a(_divmodhi4.o)
 .data          0x0000000000000000        0x0 c:/program files/microchip/xc8/v2.31/avr/bin/../lib/gcc/avr/5.4.0/avrxmega3\libgcc.a(_divmodhi4.o)
 .bss           0x0000000000000000        0x0 c:/program files/microchip/xc8/v2.31/avr/bin/../lib/gcc/avr/5.4.0/avrxmega3\libgcc.a(_divmodhi4.o)
 .text.libgcc.mul
                0x0000000000000000        0x0 c:/program files/microchip/xc8/v2.31/avr/bin/../lib/gcc/avr/5.4.0/avrxmega3\libgcc.a(_divmodhi4.o)
 .text.libgcc   0x0000000000000000        0x0 c:/program files/microchip/xc8/v2.31/avr/bin/../lib/gcc/avr/5.4.0/avrxmega3\libgcc.a(_divmodhi4.o)
 .text.libgcc.prologue
                0x0000000000000000        0x0 c:/program files/microchip/xc8/v2.31/avr/bin/../lib/gcc/avr/5.4.0/avrxmega3\libgcc.a(_divmodhi4.o)
 .text.libgcc.builtins
                0x0000000000000000        0x0 c:/program files/microchip/xc8/v2.31/avr/bin/../lib/gcc/avr/5.4.0/avrxmega3\libgcc.a(_divmodhi4.o)
 .text.libgcc.fmul
                0x0000000000000000        0x0 c:/program files/microchip/xc8/v2.31/avr/bin/../lib/gcc/avr/5.4.0/avrxmega3\libgcc.a(_divmodhi4.o)
 .text.libgcc.fixed
                0x0000000000000000        0x0 c:/program files/microchip/xc8/v2.31/avr/bin/../lib/gcc/avr/5.4.0/avrxmega3\libgcc.a(_divmodhi4.o)
 .text          0x0000000000000000        0x0 c:/program files/microchip/xc8/v2.31/avr/bin/../lib/gcc/avr/5.4.0/avrxmega3\libgcc.a(_udivmodsi4.o)
 .data          0x0000000000000000        0x0 c:/program files/microchip/xc8/v2.31/avr/bin/../lib/gcc/avr/5.4.0/avrxmega3\libgcc.a(_udivmodsi4.o)
 .bss           0x0000000000000000        0x0 c:/program files/microchip/xc8/v2.31/avr/bin/../lib/gcc/avr/5.4.0/avrxmega3\libgcc.a(_udivmodsi4.o)
 .text.libgcc.mul
                0x0000000000000000        0x0 c:/program files/microchip/xc8/v2.31/avr/bin/../lib/gcc/avr/5.4.0/avrxmega3\libgcc.a(_udivmodsi4.o)
 .text.libgcc   0x0000000000000000        0x0 c:/program files/microchip/xc8/v2.31/avr/bin/../lib/gcc/avr/5.4.0/avrxmega3\libgcc.a(_udivmodsi4.o)
 .text.libgcc.prologue
                0x0000000000000000        0x0 c:/program files/microchip/xc8/v2.31/avr/bin/../lib/gcc/avr/5.4.0/avrxmega3\libgcc.a(_udivmodsi4.o)
 .text.libgcc.builtins
                0x0000000000000000        0x0 c:/program files/microchip/xc8/v2.31/avr/bin/../lib/gcc/avr/5.4.0/avrxmega3\libgcc.a(_udivmodsi4.o)
 .text.libgcc.fmul
                0x0000000000000000        0x0 c:/program files/microchip/xc8/v2.31/avr/bin/../lib/gcc/avr/5.4.0/avrxmega3\libgcc.a(_udivmodsi4.o)
 .text.libgcc.fixed
                0x0000000000000000        0x0 c:/program files/microchip/xc8/v2.31/avr/bin/../lib/gcc/avr/5.4.0/avrxmega3\libgcc.a(_udivmodsi4.o)
 .text          0x0000000000000000        0x0 c:/program files/microchip/xc8/v2.31/avr/bin/../lib/gcc/avr/5.4.0/avrxmega3\libgcc.a(_divmodsi4.o)
 .data          0x0000000000000000        0x0 c:/program files/microchip/xc8/v2.31/avr/bin/../lib/gcc/avr/5.4.0/avrxmega3\libgcc.a(_divmodsi4.o)
 .bss           0x0000000000000000        0x0 c:/program files/microchip/xc8/v2.31/avr/bin/../lib/gcc/avr/5.4.0/avrxmega3\libgcc.a(_divmodsi4.o)
 .text.libgcc.mul
                0x0000000000000000        0x0 c:/program files/microchip/xc8/v2.31/avr/bin/../lib/gcc/avr/5.4.0/avrxmega3\libgcc.a(_divmodsi4.o)
 .text.libgcc   0x0000000000000000        0x0 c:/program files/microchip/xc8/v2.31/avr/bin/../lib/gcc/avr/5.4.0/avrxmega3\libgcc.a(_divmodsi4.o)
 .text.libgcc.prologue
                0x0000000000000000        0x0 c:/program files/microchip/xc8/v2.31/avr/bin/../lib/gcc/avr/5.4.0/avrxmega3\libgcc.a(_divmodsi4.o)
 .text.libgcc.builtins
                0x0000000000000000        0x0 c:/program files/microchip/xc8/v2.31/avr/bin/../lib/gcc/avr/5.4.0/avrxmega3\libgcc.a(_divmodsi4.o)
 .text.libgcc.fmul
                0x0000000000000000        0x0 c:/program files/microchip/xc8/v2.31/avr/bin/../lib/gcc/avr/5.4.0/avrxmega3\libgcc.a(_divmodsi4.o)
 .text.libgcc.fixed
                0x0000000000000000        0x0 c:/program files/microchip/xc8/v2.31/avr/bin/../lib/gcc/avr/5.4.0/avrxmega3\libgcc.a(_divmodsi4.o)
 .text          0x0000000000000000        0x0 c:/program files/microchip/xc8/v2.31/avr/bin/../lib/gcc/avr/5.4.0/avrxmega3\libgcc.a(_negsi2.o)
 .data          0x0000000000000000        0x0 c:/program files/microchip/xc8/v2.31/avr/bin/../lib/gcc/avr/5.4.0/avrxmega3\libgcc.a(_negsi2.o)
 .bss           0x0000000000000000        0x0 c:/program files/microchip/xc8/v2.31/avr/bin/../lib/gcc/avr/5.4.0/avrxmega3\libgcc.a(_negsi2.o)
 .text.libgcc.mul
                0x0000000000000000        0x0 c:/program files/microchip/xc8/v2.31/avr/bin/../lib/gcc/avr/5.4.0/avrxmega3\libgcc.a(_negsi2.o)
 .text.libgcc   0x0000000000000000        0x0 c:/program files/microchip/xc8/v2.31/avr/bin/../lib/gcc/avr/5.4.0/avrxmega3\libgcc.a(_negsi2.o)
 .text.libgcc.prologue
                0x0000000000000000        0x0 c:/program files/microchip/xc8/v2.31/avr/bin/../lib/gcc/avr/5.4.0/avrxmega3\libgcc.a(_negsi2.o)
 .text.libgcc.builtins
                0x0000000000000000        0x0 c:/program files/microchip/xc8/v2.31/avr/bin/../lib/gcc/avr/5.4.0/avrxmega3\libgcc.a(_negsi2.o)
 .text.libgcc.fmul
                0x0000000000000000        0x0 c:/program files/microchip/xc8/v2.31/avr/bin/../lib/gcc/avr/5.4.0/avrxmega3\libgcc.a(_negsi2.o)
 .text.libgcc.fixed
                0x0000000000000000        0x0 c:/program files/microchip/xc8/v2.31/avr/bin/../lib/gcc/avr/5.4.0/avrxmega3\libgcc.a(_negsi2.o)
 .text          0x0000000000000000        0x0 c:/program files/microchip/xc8/v2.31/avr/bin/../lib/gcc/avr/5.4.0/avrxmega3\libgcc.a(_exit.o)
 .data          0x0000000000000000        0x0 c:/program files/microchip/xc8/v2.31/avr/bin/../lib/gcc/avr/5.4.0/avrxmega3\libgcc.a(_exit.o)
 .bss           0x0000000000000000        0x0 c:/program files/microchip/xc8/v2.31/avr/bin/../lib/gcc/avr/5.4.0/avrxmega3\libgcc.a(_exit.o)
 .text.libgcc.mul
                0x0000000000000000        0x0 c:/program files/microchip/xc8/v2.31/avr/bin/../lib/gcc/avr/5.4.0/avrxmega3\libgcc.a(_exit.o)
 .text.libgcc.div
                0x0000000000000000        0x0 c:/program files/microchip/xc8/v2.31/avr/bin/../lib/gcc/avr/5.4.0/avrxmega3\libgcc.a(_exit.o)
 .text.libgcc   0x0000000000000000        0x0 c:/program files/microchip/xc8/v2.31/avr/bin/../lib/gcc/avr/5.4.0/avrxmega3\libgcc.a(_exit.o)
 .text.libgcc.prologue
                0x0000000000000000        0x0 c:/program files/microchip/xc8/v2.31/avr/bin/../lib/gcc/avr/5.4.0/avrxmega3\libgcc.a(_exit.o)
 .text.libgcc.builtins
                0x0000000000000000        0x0 c:/program files/microchip/xc8/v2.31/avr/bin/../lib/gcc/avr/5.4.0/avrxmega3\libgcc.a(_exit.o)
 .text.libgcc.fmul
                0x0000000000000000        0x0 c:/program files/microchip/xc8/v2.31/avr/bin/../lib/gcc/avr/5.4.0/avrxmega3\libgcc.a(_exit.o)
 .text.libgcc.fixed
                0x0000000000000000        0x0 c:/program files/microchip/xc8/v2.31/avr/bin/../lib/gcc/avr/5.4.0/avrxmega3\libgcc.a(_exit.o)
 .text          0x0000000000000000        0x0 c:/program files/microchip/xc8/v2.31/avr/bin/../lib/gcc/avr/5.4.0/avrxmega3\libgcc.a(_tablejump2.o)
 .data          0x0000000000000000        0x0 c:/program files/microchip/xc8/v2.31/avr/bin/../lib/gcc/avr/5.4.0/avrxmega3\libgcc.a(_tablejump2.o)
 .bss           0x0000000000000000        0x0 c:/program files/microchip/xc8/v2.31/avr/bin/../lib/gcc/avr/5.4.0/avrxmega3\libgcc.a(_tablejump2.o)
 .text.libgcc.mul
                0x0000000000000000        0x0 c:/program files/microchip/xc8/v2.31/avr/bin/../lib/gcc/avr/5.4.0/avrxmega3\libgcc.a(_tablejump2.o)
 .text.libgcc.div
                0x0000000000000000        0x0 c:/program files/microchip/xc8/v2.31/avr/bin/../lib/gcc/avr/5.4.0/avrxmega3\libgcc.a(_tablejump2.o)
 .text.libgcc   0x0000000000000000        0xc c:/program files/microchip/xc8/v2.31/avr/bin/../lib/gcc/avr/5.4.0/avrxmega3\libgcc.a(_tablejump2.o)
 .text.libgcc.prologue
                0x0000000000000000        0x0 c:/program files/microchip/xc8/v2.31/avr/bin/../lib/gcc/avr/5.4.0/avrxmega3\libgcc.a(_tablejump2.o)
 .text.libgcc.builtins
                0x0000000000000000        0x0 c:/program files/microchip/xc8/v2.31/avr/bin/../lib/gcc/avr/5.4.0/avrxmega3\libgcc.a(_tablejump2.o)
 .text.libgcc.fmul
                0x0000000000000000        0x0 c:/program files/microchip/xc8/v2.31/avr/bin/../lib/gcc/avr/5.4.0/avrxmega3\libgcc.a(_tablejump2.o)
 .text.libgcc.fixed
                0x0000000000000000        0x0 c:/program files/microchip/xc8/v2.31/avr/bin/../lib/gcc/avr/5.4.0/avrxmega3\libgcc.a(_tablejump2.o)
 .text          0x0000000000000000        0x0 c:/program files/microchip/xc8/v2.31/avr/bin/../lib/gcc/avr/5.4.0/avrxmega3\libgcc.a(_copy_data.o)
 .data          0x0000000000000000        0x0 c:/program files/microchip/xc8/v2.31/avr/bin/../lib/gcc/avr/5.4.0/avrxmega3\libgcc.a(_copy_data.o)
 .bss           0x0000000000000000        0x0 c:/program files/microchip/xc8/v2.31/avr/bin/../lib/gcc/avr/5.4.0/avrxmega3\libgcc.a(_copy_data.o)
 .text.libgcc.mul
                0x0000000000000000        0x0 c:/program files/microchip/xc8/v2.31/avr/bin/../lib/gcc/avr/5.4.0/avrxmega3\libgcc.a(_copy_data.o)
 .text.libgcc.div
                0x0000000000000000        0x0 c:/program files/microchip/xc8/v2.31/avr/bin/../lib/gcc/avr/5.4.0/avrxmega3\libgcc.a(_copy_data.o)
 .text.libgcc   0x0000000000000000        0x0 c:/program files/microchip/xc8/v2.31/avr/bin/../lib/gcc/avr/5.4.0/avrxmega3\libgcc.a(_copy_data.o)
 .text.libgcc.prologue
                0x0000000000000000        0x0 c:/program files/microchip/xc8/v2.31/avr/bin/../lib/gcc/avr/5.4.0/avrxmega3\libgcc.a(_copy_data.o)
 .text.libgcc.builtins
                0x0000000000000000        0x0 c:/program files/microchip/xc8/v2.31/avr/bin/../lib/gcc/avr/5.4.0/avrxmega3\libgcc.a(_copy_data.o)
 .text.libgcc.fmul
                0x0000000000000000        0x0 c:/program files/microchip/xc8/v2.31/avr/bin/../lib/gcc/avr/5.4.0/avrxmega3\libgcc.a(_copy_data.o)
 .text.libgcc.fixed
                0x0000000000000000        0x0 c:/program files/microchip/xc8/v2.31/avr/bin/../lib/gcc/avr/5.4.0/avrxmega3\libgcc.a(_copy_data.o)
 .text          0x0000000000000000        0x0 c:/program files/microchip/xc8/v2.31/avr/bin/../lib/gcc/avr/5.4.0/avrxmega3\libgcc.a(_umulhisi3.o)
 .data          0x0000000000000000        0x0 c:/program files/microchip/xc8/v2.31/avr/bin/../lib/gcc/avr/5.4.0/avrxmega3\libgcc.a(_umulhisi3.o)
 .bss           0x0000000000000000        0x0 c:/program files/microchip/xc8/v2.31/avr/bin/../lib/gcc/avr/5.4.0/avrxmega3\libgcc.a(_umulhisi3.o)
 .text.libgcc.div
                0x0000000000000000        0x0 c:/program files/microchip/xc8/v2.31/avr/bin/../lib/gcc/avr/5.4.0/avrxmega3\libgcc.a(_umulhisi3.o)
 .text.libgcc   0x0000000000000000        0x0 c:/program files/microchip/xc8/v2.31/avr/bin/../lib/gcc/avr/5.4.0/avrxmega3\libgcc.a(_umulhisi3.o)
 .text.libgcc.prologue
                0x0000000000000000        0x0 c:/program files/microchip/xc8/v2.31/avr/bin/../lib/gcc/avr/5.4.0/avrxmega3\libgcc.a(_umulhisi3.o)
 .text.libgcc.builtins
                0x0000000000000000        0x0 c:/program files/microchip/xc8/v2.31/avr/bin/../lib/gcc/avr/5.4.0/avrxmega3\libgcc.a(_umulhisi3.o)
 .text.libgcc.fmul
                0x0000000000000000        0x0 c:/program files/microchip/xc8/v2.31/avr/bin/../lib/gcc/avr/5.4.0/avrxmega3\libgcc.a(_umulhisi3.o)
 .text.libgcc.fixed
                0x0000000000000000        0x0 c:/program files/microchip/xc8/v2.31/avr/bin/../lib/gcc/avr/5.4.0/avrxmega3\libgcc.a(_umulhisi3.o)
 .text          0x0000000000000000        0x0 c:/program files/microchip/xc8/v2.31/avr/bin/../lib/gcc/avr/5.4.0/avrxmega3\libgcc.a(_usmulhisi3.o)
 .data          0x0000000000000000        0x0 c:/program files/microchip/xc8/v2.31/avr/bin/../lib/gcc/avr/5.4.0/avrxmega3\libgcc.a(_usmulhisi3.o)
 .bss           0x0000000000000000        0x0 c:/program files/microchip/xc8/v2.31/avr/bin/../lib/gcc/avr/5.4.0/avrxmega3\libgcc.a(_usmulhisi3.o)
 .text.libgcc.div
                0x0000000000000000        0x0 c:/program files/microchip/xc8/v2.31/avr/bin/../lib/gcc/avr/5.4.0/avrxmega3\libgcc.a(_usmulhisi3.o)
 .text.libgcc   0x0000000000000000        0x0 c:/program files/microchip/xc8/v2.31/avr/bin/../lib/gcc/avr/5.4.0/avrxmega3\libgcc.a(_usmulhisi3.o)
 .text.libgcc.prologue
                0x0000000000000000        0x0 c:/program files/microchip/xc8/v2.31/avr/bin/../lib/gcc/avr/5.4.0/avrxmega3\libgcc.a(_usmulhisi3.o)
 .text.libgcc.builtins
                0x0000000000000000        0x0 c:/program files/microchip/xc8/v2.31/avr/bin/../lib/gcc/avr/5.4.0/avrxmega3\libgcc.a(_usmulhisi3.o)
 .text.libgcc.fmul
                0x0000000000000000        0x0 c:/program files/microchip/xc8/v2.31/avr/bin/../lib/gcc/avr/5.4.0/avrxmega3\libgcc.a(_usmulhisi3.o)
 .text.libgcc.fixed
                0x0000000000000000        0x0 c:/program files/microchip/xc8/v2.31/avr/bin/../lib/gcc/avr/5.4.0/avrxmega3\libgcc.a(_usmulhisi3.o)
 .text          0x0000000000000000        0x0 c:/program files/microchip/xc8/v2.31/avr/bin/../lib/gcc/avr/5.4.0/avrxmega3\libgcc.a(_muluhisi3.o)
 .data          0x0000000000000000        0x0 c:/program files/microchip/xc8/v2.31/avr/bin/../lib/gcc/avr/5.4.0/avrxmega3\libgcc.a(_muluhisi3.o)
 .bss           0x0000000000000000        0x0 c:/program files/microchip/xc8/v2.31/avr/bin/../lib/gcc/avr/5.4.0/avrxmega3\libgcc.a(_muluhisi3.o)
 .text.libgcc.div
                0x0000000000000000        0x0 c:/program files/microchip/xc8/v2.31/avr/bin/../lib/gcc/avr/5.4.0/avrxmega3\libgcc.a(_muluhisi3.o)
 .text.libgcc   0x0000000000000000        0x0 c:/program files/microchip/xc8/v2.31/avr/bin/../lib/gcc/avr/5.4.0/avrxmega3\libgcc.a(_muluhisi3.o)
 .text.libgcc.prologue
                0x0000000000000000        0x0 c:/program files/microchip/xc8/v2.31/avr/bin/../lib/gcc/avr/5.4.0/avrxmega3\libgcc.a(_muluhisi3.o)
 .text.libgcc.builtins
                0x0000000000000000        0x0 c:/program files/microchip/xc8/v2.31/avr/bin/../lib/gcc/avr/5.4.0/avrxmega3\libgcc.a(_muluhisi3.o)
 .text.libgcc.fmul
                0x0000000000000000        0x0 c:/program files/microchip/xc8/v2.31/avr/bin/../lib/gcc/avr/5.4.0/avrxmega3\libgcc.a(_muluhisi3.o)
 .text.libgcc.fixed
                0x0000000000000000        0x0 c:/program files/microchip/xc8/v2.31/avr/bin/../lib/gcc/avr/5.4.0/avrxmega3\libgcc.a(_muluhisi3.o)
 .text          0x0000000000000000        0x0 c:/program files/microchip/xc8/v2.31/avr/bin/../lib/gcc/avr/5.4.0/avrxmega3\libgcc.a(_mulshisi3.o)
 .data          0x0000000000000000        0x0 c:/program files/microchip/xc8/v2.31/avr/bin/../lib/gcc/avr/5.4.0/avrxmega3\libgcc.a(_mulshisi3.o)
 .bss           0x0000000000000000        0x0 c:/program files/microchip/xc8/v2.31/avr/bin/../lib/gcc/avr/5.4.0/avrxmega3\libgcc.a(_mulshisi3.o)
 .text.libgcc.mul
                0x0000000000000000       0x10 c:/program files/microchip/xc8/v2.31/avr/bin/../lib/gcc/avr/5.4.0/avrxmega3\libgcc.a(_mulshisi3.o)
 .text.libgcc.div
                0x0000000000000000        0x0 c:/program files/microchip/xc8/v2.31/avr/bin/../lib/gcc/avr/5.4.0/avrxmega3\libgcc.a(_mulshisi3.o)
 .text.libgcc   0x0000000000000000        0x0 c:/program files/microchip/xc8/v2.31/avr/bin/../lib/gcc/avr/5.4.0/avrxmega3\libgcc.a(_mulshisi3.o)
 .text.libgcc.prologue
                0x0000000000000000        0x0 c:/program files/microchip/xc8/v2.31/avr/bin/../lib/gcc/avr/5.4.0/avrxmega3\libgcc.a(_mulshisi3.o)
 .text.libgcc.builtins
                0x0000000000000000        0x0 c:/program files/microchip/xc8/v2.31/avr/bin/../lib/gcc/avr/5.4.0/avrxmega3\libgcc.a(_mulshisi3.o)
 .text.libgcc.fmul
                0x0000000000000000        0x0 c:/program files/microchip/xc8/v2.31/avr/bin/../lib/gcc/avr/5.4.0/avrxmega3\libgcc.a(_mulshisi3.o)
 .text.libgcc.fixed
                0x0000000000000000        0x0 c:/program files/microchip/xc8/v2.31/avr/bin/../lib/gcc/avr/5.4.0/avrxmega3\libgcc.a(_mulshisi3.o)
 .text          0x0000000000000000        0x0 c:/program files/microchip/xc8/v2.31/avr/bin/../lib/gcc/avr/5.4.0/avrxmega3\libgcc.a(_ashldi3.o)
 .data          0x0000000000000000        0x0 c:/program files/microchip/xc8/v2.31/avr/bin/../lib/gcc/avr/5.4.0/avrxmega3\libgcc.a(_ashldi3.o)
 .bss           0x0000000000000000        0x0 c:/program files/microchip/xc8/v2.31/avr/bin/../lib/gcc/avr/5.4.0/avrxmega3\libgcc.a(_ashldi3.o)
 .text.libgcc.mul
                0x0000000000000000        0x0 c:/program files/microchip/xc8/v2.31/avr/bin/../lib/gcc/avr/5.4.0/avrxmega3\libgcc.a(_ashldi3.o)
 .text.libgcc.div
                0x0000000000000000        0x0 c:/program files/microchip/xc8/v2.31/avr/bin/../lib/gcc/avr/5.4.0/avrxmega3\libgcc.a(_ashldi3.o)
 .text.libgcc   0x0000000000000000        0x0 c:/program files/microchip/xc8/v2.31/avr/bin/../lib/gcc/avr/5.4.0/avrxmega3\libgcc.a(_ashldi3.o)
 .text.libgcc.prologue
                0x0000000000000000        0x0 c:/program files/microchip/xc8/v2.31/avr/bin/../lib/gcc/avr/5.4.0/avrxmega3\libgcc.a(_ashldi3.o)
 .text.libgcc.builtins
                0x0000000000000000       0x32 c:/program files/microchip/xc8/v2.31/avr/bin/../lib/gcc/avr/5.4.0/avrxmega3\libgcc.a(_ashldi3.o)
 .text.libgcc.fmul
                0x0000000000000000        0x0 c:/program files/microchip/xc8/v2.31/avr/bin/../lib/gcc/avr/5.4.0/avrxmega3\libgcc.a(_ashldi3.o)
 .text.libgcc.fixed
                0x0000000000000000        0x0 c:/program files/microchip/xc8/v2.31/avr/bin/../lib/gcc/avr/5.4.0/avrxmega3\libgcc.a(_ashldi3.o)
 .text          0x0000000000000000        0x0 c:/program files/microchip/xc8/v2.31/avr/bin/../lib/gcc/avr/5.4.0/avrxmega3\libgcc.a(_ashrdi3.o)
 .data          0x0000000000000000        0x0 c:/program files/microchip/xc8/v2.31/avr/bin/../lib/gcc/avr/5.4.0/avrxmega3\libgcc.a(_ashrdi3.o)
 .bss           0x0000000000000000        0x0 c:/program files/microchip/xc8/v2.31/avr/bin/../lib/gcc/avr/5.4.0/avrxmega3\libgcc.a(_ashrdi3.o)
 .text.libgcc.mul
                0x0000000000000000        0x0 c:/program files/microchip/xc8/v2.31/avr/bin/../lib/gcc/avr/5.4.0/avrxmega3\libgcc.a(_ashrdi3.o)
 .text.libgcc.div
                0x0000000000000000        0x0 c:/program files/microchip/xc8/v2.31/avr/bin/../lib/gcc/avr/5.4.0/avrxmega3\libgcc.a(_ashrdi3.o)
 .text.libgcc   0x0000000000000000        0x0 c:/program files/microchip/xc8/v2.31/avr/bin/../lib/gcc/avr/5.4.0/avrxmega3\libgcc.a(_ashrdi3.o)
 .text.libgcc.prologue
                0x0000000000000000        0x0 c:/program files/microchip/xc8/v2.31/avr/bin/../lib/gcc/avr/5.4.0/avrxmega3\libgcc.a(_ashrdi3.o)
 .text.libgcc.builtins
                0x0000000000000000       0x3c c:/program files/microchip/xc8/v2.31/avr/bin/../lib/gcc/avr/5.4.0/avrxmega3\libgcc.a(_ashrdi3.o)
 .text.libgcc.fmul
                0x0000000000000000        0x0 c:/program files/microchip/xc8/v2.31/avr/bin/../lib/gcc/avr/5.4.0/avrxmega3\libgcc.a(_ashrdi3.o)
 .text.libgcc.fixed
                0x0000000000000000        0x0 c:/program files/microchip/xc8/v2.31/avr/bin/../lib/gcc/avr/5.4.0/avrxmega3\libgcc.a(_ashrdi3.o)
 .text          0x0000000000000000        0x0 c:/program files/microchip/xc8/v2.31/avr/bin/../lib/gcc/avr/5.4.0/../../../../avr/lib/avrxmega3\libc.a(atoi_M.o)
 .data          0x0000000000000000        0x0 c:/program files/microchip/xc8/v2.31/avr/bin/../lib/gcc/avr/5.4.0/../../../../avr/lib/avrxmega3\libc.a(atoi_M.o)
 .bss           0x0000000000000000        0x0 c:/program files/microchip/xc8/v2.31/avr/bin/../lib/gcc/avr/5.4.0/../../../../avr/lib/avrxmega3\libc.a(atoi_M.o)
 .text          0x0000000000000000        0x0 c:/program files/microchip/xc8/v2.31/avr/bin/../lib/gcc/avr/5.4.0/../../../../avr/lib/avrxmega3\libc.a(atol.o)
 .data          0x0000000000000000        0x0 c:/program files/microchip/xc8/v2.31/avr/bin/../lib/gcc/avr/5.4.0/../../../../avr/lib/avrxmega3\libc.a(atol.o)
 .bss           0x0000000000000000        0x0 c:/program files/microchip/xc8/v2.31/avr/bin/../lib/gcc/avr/5.4.0/../../../../avr/lib/avrxmega3\libc.a(atol.o)
 .text          0x0000000000000000        0x0 c:/program files/microchip/xc8/v2.31/avr/bin/../lib/gcc/avr/5.4.0/../../../../avr/lib/avrxmega3\libc.a(tolower.o)
 .data          0x0000000000000000        0x0 c:/program files/microchip/xc8/v2.31/avr/bin/../lib/gcc/avr/5.4.0/../../../../avr/lib/avrxmega3\libc.a(tolower.o)
 .bss           0x0000000000000000        0x0 c:/program files/microchip/xc8/v2.31/avr/bin/../lib/gcc/avr/5.4.0/../../../../avr/lib/avrxmega3\libc.a(tolower.o)
 .text.avrlibc  0x0000000000000000       0x10 c:/program files/microchip/xc8/v2.31/avr/bin/../lib/gcc/avr/5.4.0/../../../../avr/lib/avrxmega3\libc.a(tolower.o)
 .text          0x0000000000000000        0x0 c:/program files/microchip/xc8/v2.31/avr/bin/../lib/gcc/avr/5.4.0/../../../../avr/lib/avrxmega3\libc.a(toupper.o)
 .data          0x0000000000000000        0x0 c:/program files/microchip/xc8/v2.31/avr/bin/../lib/gcc/avr/5.4.0/../../../../avr/lib/avrxmega3\libc.a(toupper.o)
 .bss           0x0000000000000000        0x0 c:/program files/microchip/xc8/v2.31/avr/bin/../lib/gcc/avr/5.4.0/../../../../avr/lib/avrxmega3\libc.a(toupper.o)
 .text.avrlibc  0x0000000000000000       0x10 c:/program files/microchip/xc8/v2.31/avr/bin/../lib/gcc/avr/5.4.0/../../../../avr/lib/avrxmega3\libc.a(toupper.o)
 .text          0x0000000000000000        0x0 c:/program files/microchip/xc8/v2.31/avr/bin/../lib/gcc/avr/5.4.0/../../../../avr/lib/avrxmega3\libc.a(strtok.o)
 .data          0x0000000000000000        0x0 c:/program files/microchip/xc8/v2.31/avr/bin/../lib/gcc/avr/5.4.0/../../../../avr/lib/avrxmega3\libc.a(strtok.o)
 .text          0x0000000000000000        0x0 c:/program files/microchip/xc8/v2.31/avr/bin/../lib/gcc/avr/5.4.0/../../../../avr/lib/avrxmega3\libc.a(memcmp.o)
 .data          0x0000000000000000        0x0 c:/program files/microchip/xc8/v2.31/avr/bin/../lib/gcc/avr/5.4.0/../../../../avr/lib/avrxmega3\libc.a(memcmp.o)
 .bss           0x0000000000000000        0x0 c:/program files/microchip/xc8/v2.31/avr/bin/../lib/gcc/avr/5.4.0/../../../../avr/lib/avrxmega3\libc.a(memcmp.o)
 .text          0x0000000000000000        0x0 c:/program files/microchip/xc8/v2.31/avr/bin/../lib/gcc/avr/5.4.0/../../../../avr/lib/avrxmega3\libc.a(memcpy.o)
 .data          0x0000000000000000        0x0 c:/program files/microchip/xc8/v2.31/avr/bin/../lib/gcc/avr/5.4.0/../../../../avr/lib/avrxmega3\libc.a(memcpy.o)
 .bss           0x0000000000000000        0x0 c:/program files/microchip/xc8/v2.31/avr/bin/../lib/gcc/avr/5.4.0/../../../../avr/lib/avrxmega3\libc.a(memcpy.o)
 .text          0x0000000000000000        0x0 c:/program files/microchip/xc8/v2.31/avr/bin/../lib/gcc/avr/5.4.0/../../../../avr/lib/avrxmega3\libc.a(memmove.o)
 .data          0x0000000000000000        0x0 c:/program files/microchip/xc8/v2.31/avr/bin/../lib/gcc/avr/5.4.0/../../../../avr/lib/avrxmega3\libc.a(memmove.o)
 .bss           0x0000000000000000        0x0 c:/program files/microchip/xc8/v2.31/avr/bin/../lib/gcc/avr/5.4.0/../../../../avr/lib/avrxmega3\libc.a(memmove.o)
 .text.avrlibc  0x0000000000000000       0x24 c:/program files/microchip/xc8/v2.31/avr/bin/../lib/gcc/avr/5.4.0/../../../../avr/lib/avrxmega3\libc.a(memmove.o)
 .text          0x0000000000000000        0x0 c:/program files/microchip/xc8/v2.31/avr/bin/../lib/gcc/avr/5.4.0/../../../../avr/lib/avrxmega3\libc.a(memset.o)
 .data          0x0000000000000000        0x0 c:/program files/microchip/xc8/v2.31/avr/bin/../lib/gcc/avr/5.4.0/../../../../avr/lib/avrxmega3\libc.a(memset.o)
 .bss           0x0000000000000000        0x0 c:/program files/microchip/xc8/v2.31/avr/bin/../lib/gcc/avr/5.4.0/../../../../avr/lib/avrxmega3\libc.a(memset.o)
 .text.avrlibc  0x0000000000000000        0xe c:/program files/microchip/xc8/v2.31/avr/bin/../lib/gcc/avr/5.4.0/../../../../avr/lib/avrxmega3\libc.a(memset.o)
 .text          0x0000000000000000        0x0 c:/program files/microchip/xc8/v2.31/avr/bin/../lib/gcc/avr/5.4.0/../../../../avr/lib/avrxmega3\libc.a(strchr.o)
 .data          0x0000000000000000        0x0 c:/program files/microchip/xc8/v2.31/avr/bin/../lib/gcc/avr/5.4.0/../../../../avr/lib/avrxmega3\libc.a(strchr.o)
 .bss           0x0000000000000000        0x0 c:/program files/microchip/xc8/v2.31/avr/bin/../lib/gcc/avr/5.4.0/../../../../avr/lib/avrxmega3\libc.a(strchr.o)
 .text          0x0000000000000000        0x0 c:/program files/microchip/xc8/v2.31/avr/bin/../lib/gcc/avr/5.4.0/../../../../avr/lib/avrxmega3\libc.a(strcmp.o)
 .data          0x0000000000000000        0x0 c:/program files/microchip/xc8/v2.31/avr/bin/../lib/gcc/avr/5.4.0/../../../../avr/lib/avrxmega3\libc.a(strcmp.o)
 .bss           0x0000000000000000        0x0 c:/program files/microchip/xc8/v2.31/avr/bin/../lib/gcc/avr/5.4.0/../../../../avr/lib/avrxmega3\libc.a(strcmp.o)
 .text          0x0000000000000000        0x0 c:/program files/microchip/xc8/v2.31/avr/bin/../lib/gcc/avr/5.4.0/../../../../avr/lib/avrxmega3\libc.a(strcpy.o)
 .data          0x0000000000000000        0x0 c:/program files/microchip/xc8/v2.31/avr/bin/../lib/gcc/avr/5.4.0/../../../../avr/lib/avrxmega3\libc.a(strcpy.o)
 .bss           0x0000000000000000        0x0 c:/program files/microchip/xc8/v2.31/avr/bin/../lib/gcc/avr/5.4.0/../../../../avr/lib/avrxmega3\libc.a(strcpy.o)
 .text          0x0000000000000000        0x0 c:/program files/microchip/xc8/v2.31/avr/bin/../lib/gcc/avr/5.4.0/../../../../avr/lib/avrxmega3\libc.a(strncmp.o)
 .data          0x0000000000000000        0x0 c:/program files/microchip/xc8/v2.31/avr/bin/../lib/gcc/avr/5.4.0/../../../../avr/lib/avrxmega3\libc.a(strncmp.o)
 .bss           0x0000000000000000        0x0 c:/program files/microchip/xc8/v2.31/avr/bin/../lib/gcc/avr/5.4.0/../../../../avr/lib/avrxmega3\libc.a(strncmp.o)
 .text          0x0000000000000000        0x0 c:/program files/microchip/xc8/v2.31/avr/bin/../lib/gcc/avr/5.4.0/../../../../avr/lib/avrxmega3\libc.a(strncpy.o)
 .data          0x0000000000000000        0x0 c:/program files/microchip/xc8/v2.31/avr/bin/../lib/gcc/avr/5.4.0/../../../../avr/lib/avrxmega3\libc.a(strncpy.o)
 .bss           0x0000000000000000        0x0 c:/program files/microchip/xc8/v2.31/avr/bin/../lib/gcc/avr/5.4.0/../../../../avr/lib/avrxmega3\libc.a(strncpy.o)
 .text          0x0000000000000000        0x0 c:/program files/microchip/xc8/v2.31/avr/bin/../lib/gcc/avr/5.4.0/../../../../avr/lib/avrxmega3\libc.a(strstr.o)
 .data          0x0000000000000000        0x0 c:/program files/microchip/xc8/v2.31/avr/bin/../lib/gcc/avr/5.4.0/../../../../avr/lib/avrxmega3\libc.a(strstr.o)
 .bss           0x0000000000000000        0x0 c:/program files/microchip/xc8/v2.31/avr/bin/../lib/gcc/avr/5.4.0/../../../../avr/lib/avrxmega3\libc.a(strstr.o)
 .text          0x0000000000000000        0x0 c:/program files/microchip/xc8/v2.31/avr/bin/../lib/gcc/avr/5.4.0/../../../../avr/lib/avrxmega3\libc.a(strtok_r.o)
 .data          0x0000000000000000        0x0 c:/program files/microchip/xc8/v2.31/avr/bin/../lib/gcc/avr/5.4.0/../../../../avr/lib/avrxmega3\libc.a(strtok_r.o)
 .bss           0x0000000000000000        0x0 c:/program files/microchip/xc8/v2.31/avr/bin/../lib/gcc/avr/5.4.0/../../../../avr/lib/avrxmega3\libc.a(strtok_r.o)
 .text          0x0000000000000000        0x0 c:/program files/microchip/xc8/v2.31/avr/bin/../lib/gcc/avr/5.4.0/../../../../avr/lib/avrxmega3\libc.a(mulsi10.o)
 .data          0x0000000000000000        0x0 c:/program files/microchip/xc8/v2.31/avr/bin/../lib/gcc/avr/5.4.0/../../../../avr/lib/avrxmega3\libc.a(mulsi10.o)
 .bss           0x0000000000000000        0x0 c:/program files/microchip/xc8/v2.31/avr/bin/../lib/gcc/avr/5.4.0/../../../../avr/lib/avrxmega3\libc.a(mulsi10.o)
 .text          0x0000000000000000        0x0 c:/program files/microchip/xc8/v2.31/avr/bin/../lib/gcc/avr/5.4.0/../../../../avr/lib/avrxmega3\libc.a(iob.o)
 .data          0x0000000000000000        0x0 c:/program files/microchip/xc8/v2.31/avr/bin/../lib/gcc/avr/5.4.0/../../../../avr/lib/avrxmega3\libc.a(iob.o)
 .bss           0x0000000000000000        0x0 c:/program files/microchip/xc8/v2.31/avr/bin/../lib/gcc/avr/5.4.0/../../../../avr/lib/avrxmega3\libc.a(iob.o)
 .text          0x0000000000000000        0x0 c:/program files/microchip/xc8/v2.31/avr/bin/../lib/gcc/avr/5.4.0/../../../../avr/lib/avrxmega3\libc.a(printf.o)
 .data          0x0000000000000000        0x0 c:/program files/microchip/xc8/v2.31/avr/bin/../lib/gcc/avr/5.4.0/../../../../avr/lib/avrxmega3\libc.a(printf.o)
 .bss           0x0000000000000000        0x0 c:/program files/microchip/xc8/v2.31/avr/bin/../lib/gcc/avr/5.4.0/../../../../avr/lib/avrxmega3\libc.a(printf.o)
 .text          0x0000000000000000        0x0 c:/program files/microchip/xc8/v2.31/avr/bin/../lib/gcc/avr/5.4.0/../../../../avr/lib/avrxmega3\libc.a(puts.o)
 .data          0x0000000000000000        0x0 c:/program files/microchip/xc8/v2.31/avr/bin/../lib/gcc/avr/5.4.0/../../../../avr/lib/avrxmega3\libc.a(puts.o)
 .bss           0x0000000000000000        0x0 c:/program files/microchip/xc8/v2.31/avr/bin/../lib/gcc/avr/5.4.0/../../../../avr/lib/avrxmega3\libc.a(puts.o)
 .text          0x0000000000000000        0x0 c:/program files/microchip/xc8/v2.31/avr/bin/../lib/gcc/avr/5.4.0/../../../../avr/lib/avrxmega3\libc.a(snprintf.o)
 .data          0x0000000000000000        0x0 c:/program files/microchip/xc8/v2.31/avr/bin/../lib/gcc/avr/5.4.0/../../../../avr/lib/avrxmega3\libc.a(snprintf.o)
 .bss           0x0000000000000000        0x0 c:/program files/microchip/xc8/v2.31/avr/bin/../lib/gcc/avr/5.4.0/../../../../avr/lib/avrxmega3\libc.a(snprintf.o)
 .text.avrlibc  0x0000000000000000       0x60 c:/program files/microchip/xc8/v2.31/avr/bin/../lib/gcc/avr/5.4.0/../../../../avr/lib/avrxmega3\libc.a(snprintf.o)
 .comment       0x0000000000000000       0x2d c:/program files/microchip/xc8/v2.31/avr/bin/../lib/gcc/avr/5.4.0/../../../../avr/lib/avrxmega3\libc.a(snprintf.o)
 .text          0x0000000000000000        0x0 c:/program files/microchip/xc8/v2.31/avr/bin/../lib/gcc/avr/5.4.0/../../../../avr/lib/avrxmega3\libc.a(sprintf.o)
 .data          0x0000000000000000        0x0 c:/program files/microchip/xc8/v2.31/avr/bin/../lib/gcc/avr/5.4.0/../../../../avr/lib/avrxmega3\libc.a(sprintf.o)
 .bss           0x0000000000000000        0x0 c:/program files/microchip/xc8/v2.31/avr/bin/../lib/gcc/avr/5.4.0/../../../../avr/lib/avrxmega3\libc.a(sprintf.o)
 .text          0x0000000000000000        0x0 c:/program files/microchip/xc8/v2.31/avr/bin/../lib/gcc/avr/5.4.0/../../../../avr/lib/avrxmega3\libc.a(vprintf.o)
 .data          0x0000000000000000        0x0 c:/program files/microchip/xc8/v2.31/avr/bin/../lib/gcc/avr/5.4.0/../../../../avr/lib/avrxmega3\libc.a(vprintf.o)
 .bss           0x0000000000000000        0x0 c:/program files/microchip/xc8/v2.31/avr/bin/../lib/gcc/avr/5.4.0/../../../../avr/lib/avrxmega3\libc.a(vprintf.o)
 .data          0x0000000000000000        0x0 c:/program files/microchip/xc8/v2.31/avr/bin/../lib/gcc/avr/5.4.0/../../../../avr/lib/avrxmega3\libc.a(ctime.o)
 .bss           0x0000000000000000        0x0 c:/program files/microchip/xc8/v2.31/avr/bin/../lib/gcc/avr/5.4.0/../../../../avr/lib/avrxmega3\libc.a(ctime.o)
 .data          0x0000000000000000        0x0 c:/program files/microchip/xc8/v2.31/avr/bin/../lib/gcc/avr/5.4.0/../../../../avr/lib/avrxmega3\libc.a(difftime.o)
 .bss           0x0000000000000000        0x0 c:/program files/microchip/xc8/v2.31/avr/bin/../lib/gcc/avr/5.4.0/../../../../avr/lib/avrxmega3\libc.a(difftime.o)
 .data          0x0000000000000000        0x0 c:/program files/microchip/xc8/v2.31/avr/bin/../lib/gcc/avr/5.4.0/../../../../avr/lib/avrxmega3\libc.a(localtime_r.o)
 .bss           0x0000000000000000        0x0 c:/program files/microchip/xc8/v2.31/avr/bin/../lib/gcc/avr/5.4.0/../../../../avr/lib/avrxmega3\libc.a(localtime_r.o)
 .data          0x0000000000000000        0x0 c:/program files/microchip/xc8/v2.31/avr/bin/../lib/gcc/avr/5.4.0/../../../../avr/lib/avrxmega3\libc.a(mktime.o)
 .bss           0x0000000000000000        0x0 c:/program files/microchip/xc8/v2.31/avr/bin/../lib/gcc/avr/5.4.0/../../../../avr/lib/avrxmega3\libc.a(mktime.o)
 .data          0x0000000000000000        0x0 c:/program files/microchip/xc8/v2.31/avr/bin/../lib/gcc/avr/5.4.0/../../../../avr/lib/avrxmega3\libc.a(set_system_time.o)
 .bss           0x0000000000000000        0x0 c:/program files/microchip/xc8/v2.31/avr/bin/../lib/gcc/avr/5.4.0/../../../../avr/lib/avrxmega3\libc.a(set_system_time.o)
 .text          0x0000000000000000        0x0 c:/program files/microchip/xc8/v2.31/avr/bin/../lib/gcc/avr/5.4.0/../../../../avr/lib/avrxmega3\libc.a(system_time.o)
 .data          0x0000000000000000        0x0 c:/program files/microchip/xc8/v2.31/avr/bin/../lib/gcc/avr/5.4.0/../../../../avr/lib/avrxmega3\libc.a(system_time.o)
 .bss           0x0000000000000000        0x0 c:/program files/microchip/xc8/v2.31/avr/bin/../lib/gcc/avr/5.4.0/../../../../avr/lib/avrxmega3\libc.a(system_time.o)
 .text          0x0000000000000000        0x0 c:/program files/microchip/xc8/v2.31/avr/bin/../lib/gcc/avr/5.4.0/../../../../avr/lib/avrxmega3\libc.a(utc_offset.o)
 .data          0x0000000000000000        0x0 c:/program files/microchip/xc8/v2.31/avr/bin/../lib/gcc/avr/5.4.0/../../../../avr/lib/avrxmega3\libc.a(utc_offset.o)
 .bss           0x0000000000000000        0x0 c:/program files/microchip/xc8/v2.31/avr/bin/../lib/gcc/avr/5.4.0/../../../../avr/lib/avrxmega3\libc.a(utc_offset.o)
 .text          0x0000000000000000        0x0 c:/program files/microchip/xc8/v2.31/avr/bin/../lib/gcc/avr/5.4.0/../../../../avr/lib/avrxmega3\libc.a(vfprintf_std.o)
 .data          0x0000000000000000        0x0 c:/program files/microchip/xc8/v2.31/avr/bin/../lib/gcc/avr/5.4.0/../../../../avr/lib/avrxmega3\libc.a(vfprintf_std.o)
 .bss           0x0000000000000000        0x0 c:/program files/microchip/xc8/v2.31/avr/bin/../lib/gcc/avr/5.4.0/../../../../avr/lib/avrxmega3\libc.a(vfprintf_std.o)
 .text          0x0000000000000000        0x0 c:/program files/microchip/xc8/v2.31/avr/bin/../lib/gcc/avr/5.4.0/../../../../avr/lib/avrxmega3\libc.a(strnlen_P.o)
 .data          0x0000000000000000        0x0 c:/program files/microchip/xc8/v2.31/avr/bin/../lib/gcc/avr/5.4.0/../../../../avr/lib/avrxmega3\libc.a(strnlen_P.o)
 .bss           0x0000000000000000        0x0 c:/program files/microchip/xc8/v2.31/avr/bin/../lib/gcc/avr/5.4.0/../../../../avr/lib/avrxmega3\libc.a(strnlen_P.o)
 .text          0x0000000000000000        0x0 c:/program files/microchip/xc8/v2.31/avr/bin/../lib/gcc/avr/5.4.0/../../../../avr/lib/avrxmega3\libc.a(strnlen.o)
 .data          0x0000000000000000        0x0 c:/program files/microchip/xc8/v2.31/avr/bin/../lib/gcc/avr/5.4.0/../../../../avr/lib/avrxmega3\libc.a(strnlen.o)
 .bss           0x0000000000000000        0x0 c:/program files/microchip/xc8/v2.31/avr/bin/../lib/gcc/avr/5.4.0/../../../../avr/lib/avrxmega3\libc.a(strnlen.o)
 .text          0x0000000000000000        0x0 c:/program files/microchip/xc8/v2.31/avr/bin/../lib/gcc/avr/5.4.0/../../../../avr/lib/avrxmega3\libc.a(fputc.o)
 .data          0x0000000000000000        0x0 c:/program files/microchip/xc8/v2.31/avr/bin/../lib/gcc/avr/5.4.0/../../../../avr/lib/avrxmega3\libc.a(fputc.o)
 .bss           0x0000000000000000        0x0 c:/program files/microchip/xc8/v2.31/avr/bin/../lib/gcc/avr/5.4.0/../../../../avr/lib/avrxmega3\libc.a(fputc.o)
 .text          0x0000000000000000        0x0 c:/program files/microchip/xc8/v2.31/avr/bin/../lib/gcc/avr/5.4.0/../../../../avr/lib/avrxmega3\libc.a(ultoa_invert.o)
 .data          0x0000000000000000        0x0 c:/program files/microchip/xc8/v2.31/avr/bin/../lib/gcc/avr/5.4.0/../../../../avr/lib/avrxmega3\libc.a(ultoa_invert.o)
 .bss           0x0000000000000000        0x0 c:/program files/microchip/xc8/v2.31/avr/bin/../lib/gcc/avr/5.4.0/../../../../avr/lib/avrxmega3\libc.a(ultoa_invert.o)
 .text          0x0000000000000000        0x0 c:/program files/microchip/xc8/v2.31/avr/bin/../lib/gcc/avr/5.4.0/../../../../avr/lib/avrxmega3\libc.a(asc_store.o)
 .bss           0x0000000000000000        0x0 c:/program files/microchip/xc8/v2.31/avr/bin/../lib/gcc/avr/5.4.0/../../../../avr/lib/avrxmega3\libc.a(asc_store.o)
 .data          0x0000000000000000        0x0 c:/program files/microchip/xc8/v2.31/avr/bin/../lib/gcc/avr/5.4.0/../../../../avr/lib/avrxmega3\libc.a(asctime_r.o)
 .bss           0x0000000000000000        0x0 c:/program files/microchip/xc8/v2.31/avr/bin/../lib/gcc/avr/5.4.0/../../../../avr/lib/avrxmega3\libc.a(asctime_r.o)
 .text          0x0000000000000000        0x0 c:/program files/microchip/xc8/v2.31/avr/bin/../lib/gcc/avr/5.4.0/../../../../avr/lib/avrxmega3\libc.a(dst_pointer.o)
 .data          0x0000000000000000        0x0 c:/program files/microchip/xc8/v2.31/avr/bin/../lib/gcc/avr/5.4.0/../../../../avr/lib/avrxmega3\libc.a(dst_pointer.o)
 .bss           0x0000000000000000        0x0 c:/program files/microchip/xc8/v2.31/avr/bin/../lib/gcc/avr/5.4.0/../../../../avr/lib/avrxmega3\libc.a(dst_pointer.o)
 .data          0x0000000000000000        0x0 c:/program files/microchip/xc8/v2.31/avr/bin/../lib/gcc/avr/5.4.0/../../../../avr/lib/avrxmega3\libc.a(gmtime_r.o)
 .bss           0x0000000000000000        0x0 c:/program files/microchip/xc8/v2.31/avr/bin/../lib/gcc/avr/5.4.0/../../../../avr/lib/avrxmega3\libc.a(gmtime_r.o)
 .data          0x0000000000000000        0x0 c:/program files/microchip/xc8/v2.31/avr/bin/../lib/gcc/avr/5.4.0/../../../../avr/lib/avrxmega3\libc.a(mk_gmtime.o)
 .bss           0x0000000000000000        0x0 c:/program files/microchip/xc8/v2.31/avr/bin/../lib/gcc/avr/5.4.0/../../../../avr/lib/avrxmega3\libc.a(mk_gmtime.o)
 .data          0x0000000000000000        0x0 c:/program files/microchip/xc8/v2.31/avr/bin/../lib/gcc/avr/5.4.0/../../../../avr/lib/avrxmega3\libc.a(print_lz.o)
 .bss           0x0000000000000000        0x0 c:/program files/microchip/xc8/v2.31/avr/bin/../lib/gcc/avr/5.4.0/../../../../avr/lib/avrxmega3\libc.a(print_lz.o)
 .data          0x0000000000000000        0x0 c:/program files/microchip/xc8/v2.31/avr/bin/../lib/gcc/avr/5.4.0/../../../../avr/lib/avrxmega3\libc.a(isLeap.o)
 .bss           0x0000000000000000        0x0 c:/program files/microchip/xc8/v2.31/avr/bin/../lib/gcc/avr/5.4.0/../../../../avr/lib/avrxmega3\libc.a(isLeap.o)
 .text          0x0000000000000000        0x0 c:/program files/microchip/xc8/v2.31/avr/bin/../lib/gcc/avr/5.4.0/avrxmega3\libgcc.a(_mulsi3.o)
 .data          0x0000000000000000        0x0 c:/program files/microchip/xc8/v2.31/avr/bin/../lib/gcc/avr/5.4.0/avrxmega3\libgcc.a(_mulsi3.o)
 .bss           0x0000000000000000        0x0 c:/program files/microchip/xc8/v2.31/avr/bin/../lib/gcc/avr/5.4.0/avrxmega3\libgcc.a(_mulsi3.o)
 .text.libgcc.div
                0x0000000000000000        0x0 c:/program files/microchip/xc8/v2.31/avr/bin/../lib/gcc/avr/5.4.0/avrxmega3\libgcc.a(_mulsi3.o)
 .text.libgcc   0x0000000000000000        0x0 c:/program files/microchip/xc8/v2.31/avr/bin/../lib/gcc/avr/5.4.0/avrxmega3\libgcc.a(_mulsi3.o)
 .text.libgcc.prologue
                0x0000000000000000        0x0 c:/program files/microchip/xc8/v2.31/avr/bin/../lib/gcc/avr/5.4.0/avrxmega3\libgcc.a(_mulsi3.o)
 .text.libgcc.builtins
                0x0000000000000000        0x0 c:/program files/microchip/xc8/v2.31/avr/bin/../lib/gcc/avr/5.4.0/avrxmega3\libgcc.a(_mulsi3.o)
 .text.libgcc.fmul
                0x0000000000000000        0x0 c:/program files/microchip/xc8/v2.31/avr/bin/../lib/gcc/avr/5.4.0/avrxmega3\libgcc.a(_mulsi3.o)
 .text.libgcc.fixed
                0x0000000000000000        0x0 c:/program files/microchip/xc8/v2.31/avr/bin/../lib/gcc/avr/5.4.0/avrxmega3\libgcc.a(_mulsi3.o)
 .text          0x0000000000000000        0x0 c:/program files/microchip/xc8/v2.31/avr/bin/../lib/gcc/avr/5.4.0/avrxmega3\libgcc.a(_prologue.o)
 .data          0x0000000000000000        0x0 c:/program files/microchip/xc8/v2.31/avr/bin/../lib/gcc/avr/5.4.0/avrxmega3\libgcc.a(_prologue.o)
 .bss           0x0000000000000000        0x0 c:/program files/microchip/xc8/v2.31/avr/bin/../lib/gcc/avr/5.4.0/avrxmega3\libgcc.a(_prologue.o)
 .text.libgcc.mul
                0x0000000000000000        0x0 c:/program files/microchip/xc8/v2.31/avr/bin/../lib/gcc/avr/5.4.0/avrxmega3\libgcc.a(_prologue.o)
 .text.libgcc.div
                0x0000000000000000        0x0 c:/program files/microchip/xc8/v2.31/avr/bin/../lib/gcc/avr/5.4.0/avrxmega3\libgcc.a(_prologue.o)
 .text.libgcc   0x0000000000000000        0x0 c:/program files/microchip/xc8/v2.31/avr/bin/../lib/gcc/avr/5.4.0/avrxmega3\libgcc.a(_prologue.o)
 .text.libgcc.builtins
                0x0000000000000000        0x0 c:/program files/microchip/xc8/v2.31/avr/bin/../lib/gcc/avr/5.4.0/avrxmega3\libgcc.a(_prologue.o)
 .text.libgcc.fmul
                0x0000000000000000        0x0 c:/program files/microchip/xc8/v2.31/avr/bin/../lib/gcc/avr/5.4.0/avrxmega3\libgcc.a(_prologue.o)
 .text.libgcc.fixed
                0x0000000000000000        0x0 c:/program files/microchip/xc8/v2.31/avr/bin/../lib/gcc/avr/5.4.0/avrxmega3\libgcc.a(_prologue.o)
 .text          0x0000000000000000        0x0 c:/program files/microchip/xc8/v2.31/avr/bin/../lib/gcc/avr/5.4.0/avrxmega3\libgcc.a(_epilogue.o)
 .data          0x0000000000000000        0x0 c:/program files/microchip/xc8/v2.31/avr/bin/../lib/gcc/avr/5.4.0/avrxmega3\libgcc.a(_epilogue.o)
 .bss           0x0000000000000000        0x0 c:/program files/microchip/xc8/v2.31/avr/bin/../lib/gcc/avr/5.4.0/avrxmega3\libgcc.a(_epilogue.o)
 .text.libgcc.mul
                0x0000000000000000        0x0 c:/program files/microchip/xc8/v2.31/avr/bin/../lib/gcc/avr/5.4.0/avrxmega3\libgcc.a(_epilogue.o)
 .text.libgcc.div
                0x0000000000000000        0x0 c:/program files/microchip/xc8/v2.31/avr/bin/../lib/gcc/avr/5.4.0/avrxmega3\libgcc.a(_epilogue.o)
 .text.libgcc   0x0000000000000000        0x0 c:/program files/microchip/xc8/v2.31/avr/bin/../lib/gcc/avr/5.4.0/avrxmega3\libgcc.a(_epilogue.o)
 .text.libgcc.builtins
                0x0000000000000000        0x0 c:/program files/microchip/xc8/v2.31/avr/bin/../lib/gcc/avr/5.4.0/avrxmega3\libgcc.a(_epilogue.o)
 .text.libgcc.fmul
                0x0000000000000000        0x0 c:/program files/microchip/xc8/v2.31/avr/bin/../lib/gcc/avr/5.4.0/avrxmega3\libgcc.a(_epilogue.o)
 .text.libgcc.fixed
                0x0000000000000000        0x0 c:/program files/microchip/xc8/v2.31/avr/bin/../lib/gcc/avr/5.4.0/avrxmega3\libgcc.a(_epilogue.o)

Memory Configuration

Name             Origin             Length             Attributes
text             0x0000000000000000 0x000000000000c000 xr
data             0x0000000000802800 0x0000000000001800 rw !x
eeprom           0x0000000000810000 0x0000000000000100 rw !x
fuse             0x0000000000820000 0x000000000000000a rw !x
lock             0x0000000000830000 0x0000000000000400 rw !x
signature        0x0000000000840000 0x0000000000000400 rw !x
user_signatures  0x0000000000850000 0x0000000000000400 rw !x
*default*        0x0000000000000000 0xffffffffffffffff

Linker script and memory map

Address of section .data set to 0x802800
                0x0000000000004000                __RODATA_PM_OFFSET__ = 0x4000
LOAD C:/Program Files/Microchip/MPLABX/v5.45/packs/Microchip/ATmega_DFP/2.2.108/xc8/avr/lib/avrxmega3/crtatmega4808.o
                0x0000000000000001                __MPLAB_BUILD = 0x1
LOAD build/default/production/mcc_generated_files/cli/cli.o
LOAD build/default/production/mcc_generated_files/cloud/crypto_client/crypto_client.o
LOAD build/default/production/mcc_generated_files/cloud/cloud_service.o
LOAD build/default/production/mcc_generated_files/cloud/wifi_service.o
LOAD build/default/production/mcc_generated_files/cloud/mqtt_service.o
LOAD build/default/production/mcc_generated_files/cloud/aws_cloud_service.o
LOAD build/default/production/mcc_generated_files/credentials_storage/credentials_storage.o
LOAD build/default/production/mcc_generated_files/CryptoAuthenticationLibrary/atcacert/atcacert_host_sw.o
LOAD build/default/production/mcc_generated_files/CryptoAuthenticationLibrary/atcacert/atcacert_date.o
LOAD build/default/production/mcc_generated_files/CryptoAuthenticationLibrary/atcacert/atcacert_pem.o
LOAD build/default/production/mcc_generated_files/CryptoAuthenticationLibrary/atcacert/atcacert_der.o
LOAD build/default/production/mcc_generated_files/CryptoAuthenticationLibrary/atcacert/atcacert_client.o
LOAD build/default/production/mcc_generated_files/CryptoAuthenticationLibrary/atcacert/atcacert_def.o
LOAD build/default/production/mcc_generated_files/CryptoAuthenticationLibrary/atcacert/atcacert_host_hw.o
LOAD build/default/production/mcc_generated_files/CryptoAuthenticationLibrary/basic/atca_basic_aes_ctr.o
LOAD build/default/production/mcc_generated_files/CryptoAuthenticationLibrary/basic/atca_basic_mac.o
LOAD build/default/production/mcc_generated_files/CryptoAuthenticationLibrary/basic/atca_basic_aes_cmac.o
LOAD build/default/production/mcc_generated_files/CryptoAuthenticationLibrary/basic/atca_helpers.o
LOAD build/default/production/mcc_generated_files/CryptoAuthenticationLibrary/basic/atca_basic_aes.o
LOAD build/default/production/mcc_generated_files/CryptoAuthenticationLibrary/basic/atca_basic_info.o
LOAD build/default/production/mcc_generated_files/CryptoAuthenticationLibrary/basic/atca_basic_sha.o
LOAD build/default/production/mcc_generated_files/CryptoAuthenticationLibrary/basic/atca_basic_sign.o
LOAD build/default/production/mcc_generated_files/CryptoAuthenticationLibrary/basic/atca_basic_secureboot.o
LOAD build/default/production/mcc_generated_files/CryptoAuthenticationLibrary/basic/atca_basic.o
LOAD build/default/production/mcc_generated_files/CryptoAuthenticationLibrary/basic/atca_basic_aes_gcm.o
LOAD build/default/production/mcc_generated_files/CryptoAuthenticationLibrary/basic/atca_basic_lock.o
LOAD build/default/production/mcc_generated_files/CryptoAuthenticationLibrary/basic/atca_basic_ecdh.o
LOAD build/default/production/mcc_generated_files/CryptoAuthenticationLibrary/basic/atca_basic_checkmac.o
LOAD build/default/production/mcc_generated_files/CryptoAuthenticationLibrary/basic/atca_basic_write.o
LOAD build/default/production/mcc_generated_files/CryptoAuthenticationLibrary/basic/atca_basic_selftest.o
LOAD build/default/production/mcc_generated_files/CryptoAuthenticationLibrary/basic/atca_basic_counter.o
LOAD build/default/production/mcc_generated_files/CryptoAuthenticationLibrary/basic/atca_basic_aes_cbc.o
LOAD build/default/production/mcc_generated_files/CryptoAuthenticationLibrary/basic/atca_basic_verify.o
LOAD build/default/production/mcc_generated_files/CryptoAuthenticationLibrary/basic/atca_basic_gendig.o
LOAD build/default/production/mcc_generated_files/CryptoAuthenticationLibrary/basic/atca_basic_genkey.o
LOAD build/default/production/mcc_generated_files/CryptoAuthenticationLibrary/basic/atca_basic_kdf.o
LOAD build/default/production/mcc_generated_files/CryptoAuthenticationLibrary/basic/atca_basic_hmac.o
LOAD build/default/production/mcc_generated_files/CryptoAuthenticationLibrary/basic/atca_basic_nonce.o
LOAD build/default/production/mcc_generated_files/CryptoAuthenticationLibrary/basic/atca_basic_read.o
LOAD build/default/production/mcc_generated_files/CryptoAuthenticationLibrary/basic/atca_basic_updateextra.o
LOAD build/default/production/mcc_generated_files/CryptoAuthenticationLibrary/basic/atca_basic_derivekey.o
LOAD build/default/production/mcc_generated_files/CryptoAuthenticationLibrary/basic/atca_basic_privwrite.o
LOAD build/default/production/mcc_generated_files/CryptoAuthenticationLibrary/basic/atca_basic_random.o
LOAD build/default/production/mcc_generated_files/CryptoAuthenticationLibrary/crypto/hashes/sha2_routines.o
LOAD build/default/production/mcc_generated_files/CryptoAuthenticationLibrary/crypto/hashes/sha1_routines.o
LOAD build/default/production/mcc_generated_files/CryptoAuthenticationLibrary/crypto/atca_crypto_sw_sha1.o
LOAD build/default/production/mcc_generated_files/CryptoAuthenticationLibrary/crypto/atca_crypto_sw_rand.o
LOAD build/default/production/mcc_generated_files/CryptoAuthenticationLibrary/crypto/atca_crypto_sw_sha2.o
LOAD build/default/production/mcc_generated_files/CryptoAuthenticationLibrary/crypto/atca_crypto_sw_ecdsa.o
LOAD build/default/production/mcc_generated_files/CryptoAuthenticationLibrary/hal/hal_i2c_timer.o
LOAD build/default/production/mcc_generated_files/CryptoAuthenticationLibrary/hal/atca_i2c_hal.o
LOAD build/default/production/mcc_generated_files/CryptoAuthenticationLibrary/hal/atca_hal.o
LOAD build/default/production/mcc_generated_files/CryptoAuthenticationLibrary/host/atca_host.o
LOAD build/default/production/mcc_generated_files/CryptoAuthenticationLibrary/jwt/atca_jwt.o
LOAD build/default/production/mcc_generated_files/CryptoAuthenticationLibrary/atca_command.o
LOAD build/default/production/mcc_generated_files/CryptoAuthenticationLibrary/atca_cfgs.o
LOAD build/default/production/mcc_generated_files/CryptoAuthenticationLibrary/atca_device.o
LOAD build/default/production/mcc_generated_files/CryptoAuthenticationLibrary/atca_execution.o
LOAD build/default/production/mcc_generated_files/CryptoAuthenticationLibrary/atca_iface.o
LOAD build/default/production/mcc_generated_files/drivers/timeout.o
LOAD build/default/production/mcc_generated_files/drivers/uart.o
LOAD build/default/production/mcc_generated_files/drivers/spi_master.o
LOAD build/default/production/mcc_generated_files/drivers/i2c_simple_master.o
LOAD build/default/production/mcc_generated_files/examples/winc_example.o
LOAD build/default/production/mcc_generated_files/examples/twi0_master_example.o
LOAD build/default/production/mcc_generated_files/mqtt/mqtt_comm_bsd/mqtt_comm_layer.o
LOAD build/default/production/mcc_generated_files/mqtt/mqtt_core/mqtt_core.o
LOAD build/default/production/mcc_generated_files/mqtt/mqtt_exchange_buffer/mqtt_exchange_buffer.o
LOAD build/default/production/mcc_generated_files/mqtt/mqtt_winc_adapter.o
LOAD build/default/production/mcc_generated_files/mqtt/mqtt_packetTransfer_interface.o
LOAD build/default/production/mcc_generated_files/src/protected_io.o
LOAD build/default/production/mcc_generated_files/src/twi0_master.o
LOAD build/default/production/mcc_generated_files/src/adc0.o
LOAD build/default/production/mcc_generated_files/src/usart2.o
LOAD build/default/production/mcc_generated_files/src/cpuint.o
LOAD build/default/production/mcc_generated_files/src/pin_manager.o
LOAD build/default/production/mcc_generated_files/src/rtc.o
LOAD build/default/production/mcc_generated_files/src/spi0.o
LOAD build/default/production/mcc_generated_files/winc/driver/winc_asic.o
LOAD build/default/production/mcc_generated_files/winc/driver/winc_hif.o
LOAD build/default/production/mcc_generated_files/winc/driver/winc_spi.o
LOAD build/default/production/mcc_generated_files/winc/driver/winc_adapter.o
LOAD build/default/production/mcc_generated_files/winc/driver/winc_drv.o
LOAD build/default/production/mcc_generated_files/winc/m2m/m2m_crypto.o
LOAD build/default/production/mcc_generated_files/winc/m2m/m2m_fwinfo.o
LOAD build/default/production/mcc_generated_files/winc/m2m/m2m_ssl.o
LOAD build/default/production/mcc_generated_files/winc/m2m/m2m_periph.o
LOAD build/default/production/mcc_generated_files/winc/m2m/m2m_wifi.o
LOAD build/default/production/mcc_generated_files/winc/m2m/m2m_ota.o
LOAD build/default/production/mcc_generated_files/winc/socket/socket.o
LOAD build/default/production/mcc_generated_files/winc/spi_flash/flexible_flash.o
LOAD build/default/production/mcc_generated_files/winc/spi_flash/spi_flash.o
LOAD build/default/production/mcc_generated_files/device_config.o
LOAD build/default/production/mcc_generated_files/debug_print.o
LOAD build/default/production/mcc_generated_files/application_manager.o
LOAD build/default/production/mcc_generated_files/led.o
LOAD build/default/production/mcc_generated_files/delay.o
LOAD build/default/production/mcc_generated_files/mcc.o
LOAD build/default/production/mcc_generated_files/CryptoAuth_init.o
LOAD build/default/production/mcc_generated_files/time_service.o
LOAD build/default/production/mcc_generated_files/sensors_handling.o
LOAD build/default/production/main.o
LOAD build/default/production/mcc_generated_files/src/usart1.o
START GROUP
LOAD c:/program files/microchip/xc8/v2.31/avr/bin/../lib/gcc/avr/5.4.0/../../../../avr/lib/avrxmega3\libm.a
END GROUP
START GROUP
LOAD c:/program files/microchip/xc8/v2.31/avr/bin/../lib/gcc/avr/5.4.0/avrxmega3\libgcc.a
LOAD c:/program files/microchip/xc8/v2.31/avr/bin/../lib/gcc/avr/5.4.0/../../../../avr/lib/avrxmega3\libm.a
LOAD c:/program files/microchip/xc8/v2.31/avr/bin/../lib/gcc/avr/5.4.0/../../../../avr/lib/avrxmega3\libc.a
LOAD C:/Program Files/Microchip/MPLABX/v5.45/packs/Microchip/ATmega_DFP/2.2.108/xc8/avr/lib/avrxmega3\libatmega4808.a
END GROUP
                [0x0000000000000000]                __TEXT_REGION_ORIGIN__ = DEFINED (__TEXT_REGION_ORIGIN__)?__TEXT_REGION_ORIGIN__:0x0
                [0x0000000000802800]                __DATA_REGION_ORIGIN__ = DEFINED (__DATA_REGION_ORIGIN__)?__DATA_REGION_ORIGIN__:0x802000
                [0x000000000000c000]                __TEXT_REGION_LENGTH__ = DEFINED (__TEXT_REGION_LENGTH__)?__TEXT_REGION_LENGTH__:0x100000
                [0x0000000000001800]                __DATA_REGION_LENGTH__ = DEFINED (__DATA_REGION_LENGTH__)?__DATA_REGION_LENGTH__:0xffa0
                [0x0000000000000100]                __EEPROM_REGION_LENGTH__ = DEFINED (__EEPROM_REGION_LENGTH__)?__EEPROM_REGION_LENGTH__:0x10000
                [0x000000000000000a]                __FUSE_REGION_LENGTH__ = DEFINED (__FUSE_REGION_LENGTH__)?__FUSE_REGION_LENGTH__:0x400
                0x0000000000000400                __LOCK_REGION_LENGTH__ = DEFINED (__LOCK_REGION_LENGTH__)?__LOCK_REGION_LENGTH__:0x400
                0x0000000000000400                __SIGNATURE_REGION_LENGTH__ = DEFINED (__SIGNATURE_REGION_LENGTH__)?__SIGNATURE_REGION_LENGTH__:0x400
                0x0000000000000400                __USER_SIGNATURE_REGION_LENGTH__ = DEFINED (__USER_SIGNATURE_REGION_LENGTH__)?__USER_SIGNATURE_REGION_LENGTH__:0x400
                0x0000000000008000                __RODATA_PM_OFFSET__ = DEFINED (__RODATA_PM_OFFSET__)?__RODATA_PM_OFFSET__:0x8000

.hash
 *(.hash)

.dynsym
 *(.dynsym)

.dynstr
 *(.dynstr)

.gnu.version
 *(.gnu.version)

.gnu.version_d
 *(.gnu.version_d)

.gnu.version_r
 *(.gnu.version_r)

.rel.init
 *(.rel.init)

.rela.init
 *(.rela.init)

.rel.text
 *(.rel.text)
 *(.rel.text.*)
 *(.rel.gnu.linkonce.t*)

.rela.text
 *(.rela.text)
 *(.rela.text.*)
 *(.rela.gnu.linkonce.t*)

.rel.fini
 *(.rel.fini)

.rela.fini
 *(.rela.fini)

.rel.rodata
 *(.rel.rodata)
 *(.rel.rodata.*)
 *(.rel.gnu.linkonce.r*)

.rela.rodata
 *(.rela.rodata)
 *(.rela.rodata.*)
 *(.rela.gnu.linkonce.r*)

.rel.data
 *(.rel.data)
 *(.rel.data.*)
 *(.rel.gnu.linkonce.d*)

.rela.data
 *(.rela.data)
 *(.rela.data.*)
 *(.rela.gnu.linkonce.d*)

.rel.ctors
 *(.rel.ctors)

.rela.ctors
 *(.rela.ctors)

.rel.dtors
 *(.rel.dtors)

.rela.dtors
 *(.rela.dtors)

.rel.got
 *(.rel.got)

.rela.got
 *(.rela.got)

.rel.bss
 *(.rel.bss)

.rela.bss
 *(.rela.bss)

.rel.plt
 *(.rel.plt)

.rela.plt
 *(.rela.plt)

.text           0x0000000000000000      0x186
 *(.vectors)
 .vectors       0x0000000000000000       0x90 C:/Program Files/Microchip/MPLABX/v5.45/packs/Microchip/ATmega_DFP/2.2.108/xc8/avr/lib/avrxmega3/crtatmega4808.o
                0x0000000000000000                __vector_default
                0x0000000000000000                __vectors
 *(.vectors)
 *(.progmem.gcc*)
 *(.dinit)
 .dinit         0x0000000000000090       0xa1 data_init
                0x0000000000000132                . = ALIGN (0x2)
 *fill*         0x0000000000000131        0x1 
                0x0000000000000132                __trampolines_start = .
 *(.trampolines)
 .trampolines   0x0000000000000132        0x0 linker stubs
 *(.trampolines*)
                0x0000000000000132                __trampolines_end = .
 *libprintf_flt.a:*(.progmem.data)
 *libc.a:*(.progmem.data)
                0x0000000000000132                . = ALIGN (0x2)
 *(.jumptables)
 *(.jumptables*)
 *(.lowtext)
 *(.lowtext*)
                0x0000000000000132                __ctors_start = .
 *(.ctors)
                0x0000000000000132                __ctors_end = .
                0x0000000000000132                __dtors_start = .
 *(.dtors)
                0x0000000000000132                __dtors_end = .
 SORT(*)(.ctors)
 SORT(*)(.dtors)
 *(.init0)
 .init0         0x0000000000000132        0x0 C:/Program Files/Microchip/MPLABX/v5.45/packs/Microchip/ATmega_DFP/2.2.108/xc8/avr/lib/avrxmega3/crtatmega4808.o
                0x0000000000000132                __init
 *(.init0)
 *(.init1)
 *(.init1)
 *(.init2)
 .init2         0x0000000000000132        0xc C:/Program Files/Microchip/MPLABX/v5.45/packs/Microchip/ATmega_DFP/2.2.108/xc8/avr/lib/avrxmega3/crtatmega4808.o
 *(.init2)
 *(.init3)
 *(.init3)
 *(.init4)
 .init4         0x000000000000013e       0x3c c:/program files/microchip/xc8/v2.31/avr/bin/../lib/gcc/avr/5.4.0/avrxmega3\libgcc.a(_copy_data.o)
                0x000000000000013e                __do_copy_data
                0x000000000000016c                __do_clear_bss
 *(.init4)
 *(.init5)
 *(.init5)
 *(.init6)
 *(.init6)
 *(.init7)
 *(.init7)
 *(.init8)
 *(.init8)
 *(.init9)
 .init9         0x000000000000017a        0x8 C:/Program Files/Microchip/MPLABX/v5.45/packs/Microchip/ATmega_DFP/2.2.108/xc8/avr/lib/avrxmega3/crtatmega4808.o
 *(.init9)
                0x0000000000000182                . = ALIGN (0x2)
 *(.fini9)
 .fini9         0x0000000000000182        0x0 c:/program files/microchip/xc8/v2.31/avr/bin/../lib/gcc/avr/5.4.0/avrxmega3\libgcc.a(_exit.o)
                0x0000000000000182                _exit
                0x0000000000000182                exit
 *(.fini9)
 *(.fini8)
 *(.fini8)
 *(.fini7)
 *(.fini7)
 *(.fini6)
 *(.fini6)
 *(.fini5)
 *(.fini5)
 *(.fini4)
 *(.fini4)
 *(.fini3)
 *(.fini3)
 *(.fini2)
 *(.fini2)
 *(.fini1)
 *(.fini1)
 *(.fini0)
 .fini0         0x0000000000000182        0x4 c:/program files/microchip/xc8/v2.31/avr/bin/../lib/gcc/avr/5.4.0/avrxmega3\libgcc.a(_exit.o)
 *(.fini0)
                0x0000000000000186                _etext = .

.data           0x0000000000802800        0x0 load address 0x0000000000000186
                [!provide]                        PROVIDE (__data_start, .)
 *(.gnu.linkonce.d*)
                0x0000000000802800                . = ALIGN (0x2)
                0x0000000000802800                _edata = .
                [!provide]                        PROVIDE (__data_end, .)

.bss            0x0000000000802800      0x5aa
                [!provide]                        PROVIDE (__bss_start, .)
 *(COMMON)
 COMMON         0x0000000000802800        0x9 build/default/production/mcc_generated_files/cloud/crypto_client/crypto_client.o
                0x0000000000802800                g_serial_number
 COMMON         0x0000000000802809       0x10 build/default/production/mcc_generated_files/cloud/cloud_service.o
                0x0000000000802809                cloudStatus
                0x000000000080280a                mqttBrokerIP
                0x000000000080280e                shared_networking_params
                0x000000000080280f                cloud_packetReceiveCallBackTable
 COMMON         0x0000000000802819        0x2 build/default/production/mcc_generated_files/cloud/wifi_service.o
                0x0000000000802819                callback_funcPtr
 COMMON         0x000000000080281b       0x5d build/default/production/mcc_generated_files/cloud/mqtt_service.o
                0x000000000080281b                awsEndpoint
                0x000000000080284f                cid
 COMMON         0x0000000000802878        0x4 build/default/production/mcc_generated_files/cloud/aws_cloud_service.o
                0x0000000000802878                imqtt_publishReceiveCallBackTable
 COMMON         0x000000000080287c       0x78 build/default/production/mcc_generated_files/credentials_storage/credentials_storage.o
                0x000000000080287c                ssid
                0x000000000080289d                pass
                0x00000000008028de                ntpServerName
                0x00000000008028f2                authType
 COMMON         0x00000000008028f4       0x1b build/default/production/mcc_generated_files/CryptoAuthenticationLibrary/basic/atca_basic.o
                0x00000000008028f4                g_atcab_device
                0x00000000008028f8                g_atcab_iface
                0x000000000080290b                g_atcab_command
 COMMON         0x000000000080290f        0xa build/default/production/mcc_generated_files/drivers/timeout.o
                0x000000000080290f                dummy
 COMMON         0x0000000000802919        0x2 build/default/production/mcc_generated_files/mqtt/mqtt_packetTransfer_interface.o
                0x0000000000802919                publishRecvCallback
 COMMON         0x000000000080291b      0x465 build/default/production/mcc_generated_files/application_manager.o
                0x000000000080291b                mqttSubscribeTopic
                0x000000000080297f                retValCryptoClientSerialNumber
                0x0000000000802980                buffer
 COMMON         0x0000000000802d80        0x6 c:/program files/microchip/xc8/v2.31/avr/bin/../lib/gcc/avr/5.4.0/../../../../avr/lib/avrxmega3\libc.a(iob.o)
                0x0000000000802d80                __iob
 COMMON         0x0000000000802d86        0x4 c:/program files/microchip/xc8/v2.31/avr/bin/../lib/gcc/avr/5.4.0/../../../../avr/lib/avrxmega3\libc.a(system_time.o)
                0x0000000000802d86                __system_time
 COMMON         0x0000000000802d8a        0x4 c:/program files/microchip/xc8/v2.31/avr/bin/../lib/gcc/avr/5.4.0/../../../../avr/lib/avrxmega3\libc.a(utc_offset.o)
                0x0000000000802d8a                __utc_offset
 COMMON         0x0000000000802d8e       0x1a c:/program files/microchip/xc8/v2.31/avr/bin/../lib/gcc/avr/5.4.0/../../../../avr/lib/avrxmega3\libc.a(asc_store.o)
                0x0000000000802d8e                __store
 COMMON         0x0000000000802da8        0x2 c:/program files/microchip/xc8/v2.31/avr/bin/../lib/gcc/avr/5.4.0/../../../../avr/lib/avrxmega3\libc.a(dst_pointer.o)
                0x0000000000802da8                __dst_ptr
                [!provide]                        PROVIDE (__bss_end, .)
                0x0000000000000186                __data_load_start = LOADADDR (.data)
                0x0000000000000186                __data_load_end = (__data_load_start + SIZEOF (.data))

.noinit         0x0000000000802daa        0x0
                [!provide]                        PROVIDE (__noinit_start, .)
 *(.noinit*)
                [!provide]                        PROVIDE (__noinit_end, .)
                0x0000000000802daa                _end = .

.eeprom         0x0000000000810000        0x0
 *(.eeprom*)
                0x0000000000810000                __eeprom_end = .

.fuse           0x0000000000820000        0x9
 *(.fuse)
 .fuse          0x0000000000820000        0x9 build/default/production/mcc_generated_files/device_config.o
                0x0000000000820000                __fuse
 *(.lfuse)
 *(.hfuse)
 *(.efuse)

.lock
 *(.lock*)

.signature
 *(.signature*)

.user_signatures
 *(.user_signatures*)

.stab
 *(.stab)

.stabstr
 *(.stabstr)

.stab.excl
 *(.stab.excl)

.stab.exclstr
 *(.stab.exclstr)

.stab.index
 *(.stab.index)

.stab.indexstr
 *(.stab.indexstr)

.comment        0x0000000000000000       0x5b
 *(.comment)
 .comment       0x0000000000000000       0x2f build/default/production/mcc_generated_files/cli/cli.o
                                         0x30 (size before relaxing)
 .comment       0x000000000000002f       0x30 build/default/production/mcc_generated_files/cloud/crypto_client/crypto_client.o
 .comment       0x000000000000002f       0x30 build/default/production/mcc_generated_files/cloud/cloud_service.o
 .comment       0x000000000000002f       0x30 build/default/production/mcc_generated_files/cloud/wifi_service.o
 .comment       0x000000000000002f       0x30 build/default/production/mcc_generated_files/cloud/mqtt_service.o
 .comment       0x000000000000002f       0x30 build/default/production/mcc_generated_files/cloud/aws_cloud_service.o
 .comment       0x000000000000002f       0x30 build/default/production/mcc_generated_files/credentials_storage/credentials_storage.o
 .comment       0x000000000000002f       0x30 build/default/production/mcc_generated_files/CryptoAuthenticationLibrary/basic/atca_basic_sign.o
 .comment       0x000000000000002f       0x30 build/default/production/mcc_generated_files/CryptoAuthenticationLibrary/basic/atca_basic.o
 .comment       0x000000000000002f       0x30 build/default/production/mcc_generated_files/CryptoAuthenticationLibrary/basic/atca_basic_lock.o
 .comment       0x000000000000002f       0x30 build/default/production/mcc_generated_files/CryptoAuthenticationLibrary/basic/atca_basic_ecdh.o
 .comment       0x000000000000002f       0x30 build/default/production/mcc_generated_files/CryptoAuthenticationLibrary/basic/atca_basic_verify.o
 .comment       0x000000000000002f       0x30 build/default/production/mcc_generated_files/CryptoAuthenticationLibrary/basic/atca_basic_genkey.o
 .comment       0x000000000000002f       0x30 build/default/production/mcc_generated_files/CryptoAuthenticationLibrary/basic/atca_basic_nonce.o
 .comment       0x000000000000002f       0x30 build/default/production/mcc_generated_files/CryptoAuthenticationLibrary/basic/atca_basic_read.o
 .comment       0x000000000000002f       0x30 build/default/production/mcc_generated_files/CryptoAuthenticationLibrary/basic/atca_basic_random.o
 .comment       0x000000000000002f       0x30 build/default/production/mcc_generated_files/CryptoAuthenticationLibrary/hal/hal_i2c_timer.o
 .comment       0x000000000000002f       0x30 build/default/production/mcc_generated_files/CryptoAuthenticationLibrary/hal/atca_i2c_hal.o
 .comment       0x000000000000002f       0x30 build/default/production/mcc_generated_files/CryptoAuthenticationLibrary/hal/atca_hal.o
 .comment       0x000000000000002f       0x30 build/default/production/mcc_generated_files/CryptoAuthenticationLibrary/atca_command.o
 .comment       0x000000000000002f       0x30 build/default/production/mcc_generated_files/CryptoAuthenticationLibrary/atca_device.o
 .comment       0x000000000000002f       0x30 build/default/production/mcc_generated_files/CryptoAuthenticationLibrary/atca_execution.o
 .comment       0x000000000000002f       0x30 build/default/production/mcc_generated_files/CryptoAuthenticationLibrary/atca_iface.o
 .comment       0x000000000000002f       0x30 build/default/production/mcc_generated_files/drivers/timeout.o
 .comment       0x000000000000002f       0x30 build/default/production/mcc_generated_files/drivers/uart.o
 .comment       0x000000000000002f       0x30 build/default/production/mcc_generated_files/drivers/spi_master.o
 .comment       0x000000000000002f       0x30 build/default/production/mcc_generated_files/drivers/i2c_simple_master.o
 .comment       0x000000000000002f       0x30 build/default/production/mcc_generated_files/mqtt/mqtt_comm_bsd/mqtt_comm_layer.o
 .comment       0x000000000000002f       0x30 build/default/production/mcc_generated_files/mqtt/mqtt_core/mqtt_core.o
 .comment       0x000000000000002f       0x30 build/default/production/mcc_generated_files/mqtt/mqtt_exchange_buffer/mqtt_exchange_buffer.o
 .comment       0x000000000000002f       0x30 build/default/production/mcc_generated_files/mqtt/mqtt_winc_adapter.o
 .comment       0x000000000000002f       0x30 build/default/production/mcc_generated_files/mqtt/mqtt_packetTransfer_interface.o
 .comment       0x000000000000002f       0x30 build/default/production/mcc_generated_files/src/twi0_master.o
 .comment       0x000000000000002f       0x30 build/default/production/mcc_generated_files/src/adc0.o
 .comment       0x000000000000002f       0x30 build/default/production/mcc_generated_files/src/usart2.o
 .comment       0x000000000000002f       0x30 build/default/production/mcc_generated_files/src/cpuint.o
 .comment       0x000000000000002f       0x30 build/default/production/mcc_generated_files/src/pin_manager.o
 .comment       0x000000000000002f       0x30 build/default/production/mcc_generated_files/src/rtc.o
 .comment       0x000000000000002f       0x30 build/default/production/mcc_generated_files/src/spi0.o
 .comment       0x000000000000002f       0x30 build/default/production/mcc_generated_files/winc/driver/winc_asic.o
 .comment       0x000000000000002f       0x30 build/default/production/mcc_generated_files/winc/driver/winc_hif.o
 .comment       0x000000000000002f       0x30 build/default/production/mcc_generated_files/winc/driver/winc_spi.o
 .comment       0x000000000000002f       0x30 build/default/production/mcc_generated_files/winc/driver/winc_adapter.o
 .comment       0x000000000000002f       0x30 build/default/production/mcc_generated_files/winc/driver/winc_drv.o
 .comment       0x000000000000002f       0x30 build/default/production/mcc_generated_files/winc/m2m/m2m_fwinfo.o
 .comment       0x000000000000002f       0x30 build/default/production/mcc_generated_files/winc/m2m/m2m_ssl.o
 .comment       0x000000000000002f       0x30 build/default/production/mcc_generated_files/winc/m2m/m2m_wifi.o
 .comment       0x000000000000002f       0x30 build/default/production/mcc_generated_files/winc/socket/socket.o
 .comment       0x000000000000002f       0x30 build/default/production/mcc_generated_files/winc/spi_flash/spi_flash.o
 .comment       0x000000000000002f       0x30 build/default/production/mcc_generated_files/device_config.o
 .comment       0x000000000000002f       0x30 build/default/production/mcc_generated_files/debug_print.o
 .comment       0x000000000000002f       0x30 build/default/production/mcc_generated_files/application_manager.o
 .comment       0x000000000000002f       0x30 build/default/production/mcc_generated_files/led.o
 .comment       0x000000000000002f       0x30 build/default/production/mcc_generated_files/delay.o
 .comment       0x000000000000002f       0x30 build/default/production/mcc_generated_files/mcc.o
 .comment       0x000000000000002f       0x30 build/default/production/mcc_generated_files/CryptoAuth_init.o
 .comment       0x000000000000002f       0x30 build/default/production/mcc_generated_files/time_service.o
 .comment       0x000000000000002f       0x30 build/default/production/main.o
 .comment       0x000000000000002f       0x30 build/default/production/mcc_generated_files/src/usart1.o
 .comment       0x000000000000002f       0x2c c:/program files/microchip/xc8/v2.31/avr/bin/../lib/gcc/avr/5.4.0/../../../../avr/lib/avrxmega3\libc.a(atoi_M.o)
                                         0x2d (size before relaxing)
 .comment       0x000000000000005b       0x2d c:/program files/microchip/xc8/v2.31/avr/bin/../lib/gcc/avr/5.4.0/../../../../avr/lib/avrxmega3\libc.a(strtok.o)
 .comment       0x000000000000005b       0x2d c:/program files/microchip/xc8/v2.31/avr/bin/../lib/gcc/avr/5.4.0/../../../../avr/lib/avrxmega3\libc.a(iob.o)
 .comment       0x000000000000005b       0x2d c:/program files/microchip/xc8/v2.31/avr/bin/../lib/gcc/avr/5.4.0/../../../../avr/lib/avrxmega3\libc.a(printf.o)
 .comment       0x000000000000005b       0x2d c:/program files/microchip/xc8/v2.31/avr/bin/../lib/gcc/avr/5.4.0/../../../../avr/lib/avrxmega3\libc.a(puts.o)
 .comment       0x000000000000005b       0x2d c:/program files/microchip/xc8/v2.31/avr/bin/../lib/gcc/avr/5.4.0/../../../../avr/lib/avrxmega3\libc.a(sprintf.o)
 .comment       0x000000000000005b       0x2d c:/program files/microchip/xc8/v2.31/avr/bin/../lib/gcc/avr/5.4.0/../../../../avr/lib/avrxmega3\libc.a(vprintf.o)
 .comment       0x000000000000005b       0x2d c:/program files/microchip/xc8/v2.31/avr/bin/../lib/gcc/avr/5.4.0/../../../../avr/lib/avrxmega3\libc.a(ctime.o)
 .comment       0x000000000000005b       0x2d c:/program files/microchip/xc8/v2.31/avr/bin/../lib/gcc/avr/5.4.0/../../../../avr/lib/avrxmega3\libc.a(difftime.o)
 .comment       0x000000000000005b       0x2d c:/program files/microchip/xc8/v2.31/avr/bin/../lib/gcc/avr/5.4.0/../../../../avr/lib/avrxmega3\libc.a(localtime_r.o)
 .comment       0x000000000000005b       0x2d c:/program files/microchip/xc8/v2.31/avr/bin/../lib/gcc/avr/5.4.0/../../../../avr/lib/avrxmega3\libc.a(mktime.o)
 .comment       0x000000000000005b       0x2d c:/program files/microchip/xc8/v2.31/avr/bin/../lib/gcc/avr/5.4.0/../../../../avr/lib/avrxmega3\libc.a(set_system_time.o)
 .comment       0x000000000000005b       0x2d c:/program files/microchip/xc8/v2.31/avr/bin/../lib/gcc/avr/5.4.0/../../../../avr/lib/avrxmega3\libc.a(system_time.o)
 .comment       0x000000000000005b       0x2d c:/program files/microchip/xc8/v2.31/avr/bin/../lib/gcc/avr/5.4.0/../../../../avr/lib/avrxmega3\libc.a(utc_offset.o)
 .comment       0x000000000000005b       0x2d c:/program files/microchip/xc8/v2.31/avr/bin/../lib/gcc/avr/5.4.0/../../../../avr/lib/avrxmega3\libc.a(vfprintf_std.o)
 .comment       0x000000000000005b       0x2d c:/program files/microchip/xc8/v2.31/avr/bin/../lib/gcc/avr/5.4.0/../../../../avr/lib/avrxmega3\libc.a(fputc.o)
 .comment       0x000000000000005b       0x2d c:/program files/microchip/xc8/v2.31/avr/bin/../lib/gcc/avr/5.4.0/../../../../avr/lib/avrxmega3\libc.a(asc_store.o)
 .comment       0x000000000000005b       0x2d c:/program files/microchip/xc8/v2.31/avr/bin/../lib/gcc/avr/5.4.0/../../../../avr/lib/avrxmega3\libc.a(asctime_r.o)
 .comment       0x000000000000005b       0x2d c:/program files/microchip/xc8/v2.31/avr/bin/../lib/gcc/avr/5.4.0/../../../../avr/lib/avrxmega3\libc.a(dst_pointer.o)
 .comment       0x000000000000005b       0x2d c:/program files/microchip/xc8/v2.31/avr/bin/../lib/gcc/avr/5.4.0/../../../../avr/lib/avrxmega3\libc.a(gmtime_r.o)
 .comment       0x000000000000005b       0x2d c:/program files/microchip/xc8/v2.31/avr/bin/../lib/gcc/avr/5.4.0/../../../../avr/lib/avrxmega3\libc.a(mk_gmtime.o)
 .comment       0x000000000000005b       0x2d c:/program files/microchip/xc8/v2.31/avr/bin/../lib/gcc/avr/5.4.0/../../../../avr/lib/avrxmega3\libc.a(print_lz.o)
 .comment       0x000000000000005b       0x2d c:/program files/microchip/xc8/v2.31/avr/bin/../lib/gcc/avr/5.4.0/../../../../avr/lib/avrxmega3\libc.a(isLeap.o)

.note.gnu.build-id
 *(.note.gnu.build-id)

.debug
 *(.debug)

.line
 *(.line)

.debug_srcinfo
 *(.debug_srcinfo)

.debug_sfnames
 *(.debug_sfnames)

.debug_aranges  0x0000000000000000     0x1b68
 *(.debug_aranges)
 .debug_aranges
                0x0000000000000000       0x70 build/default/production/mcc_generated_files/cli/cli.o
 .debug_aranges
                0x0000000000000070       0x58 build/default/production/mcc_generated_files/cloud/crypto_client/crypto_client.o
 .debug_aranges
                0x00000000000000c8       0x68 build/default/production/mcc_generated_files/cloud/cloud_service.o
 .debug_aranges
                0x0000000000000130       0x78 build/default/production/mcc_generated_files/cloud/wifi_service.o
 .debug_aranges
                0x00000000000001a8       0x50 build/default/production/mcc_generated_files/cloud/mqtt_service.o
 .debug_aranges
                0x00000000000001f8       0x60 build/default/production/mcc_generated_files/cloud/aws_cloud_service.o
 .debug_aranges
                0x0000000000000258       0x20 build/default/production/mcc_generated_files/credentials_storage/credentials_storage.o
 .debug_aranges
                0x0000000000000278       0x30 build/default/production/mcc_generated_files/CryptoAuthenticationLibrary/basic/atca_basic_sign.o
 .debug_aranges
                0x00000000000002a8       0x80 build/default/production/mcc_generated_files/CryptoAuthenticationLibrary/basic/atca_basic.o
 .debug_aranges
                0x0000000000000328       0x48 build/default/production/mcc_generated_files/CryptoAuthenticationLibrary/basic/atca_basic_lock.o
 .debug_aranges
                0x0000000000000370       0x48 build/default/production/mcc_generated_files/CryptoAuthenticationLibrary/basic/atca_basic_ecdh.o
 .debug_aranges
                0x00000000000003b8       0x58 build/default/production/mcc_generated_files/CryptoAuthenticationLibrary/basic/atca_basic_verify.o
 .debug_aranges
                0x0000000000000410       0x30 build/default/production/mcc_generated_files/CryptoAuthenticationLibrary/basic/atca_basic_genkey.o
 .debug_aranges
                0x0000000000000440       0x48 build/default/production/mcc_generated_files/CryptoAuthenticationLibrary/basic/atca_basic_nonce.o
 .debug_aranges
                0x0000000000000488       0x68 build/default/production/mcc_generated_files/CryptoAuthenticationLibrary/basic/atca_basic_read.o
 .debug_aranges
                0x00000000000004f0       0x20 build/default/production/mcc_generated_files/CryptoAuthenticationLibrary/basic/atca_basic_random.o
 .debug_aranges
                0x0000000000000510       0x28 build/default/production/mcc_generated_files/CryptoAuthenticationLibrary/hal/hal_i2c_timer.o
 .debug_aranges
                0x0000000000000538       0x68 build/default/production/mcc_generated_files/CryptoAuthenticationLibrary/hal/atca_i2c_hal.o
 .debug_aranges
                0x00000000000005a0       0x30 build/default/production/mcc_generated_files/CryptoAuthenticationLibrary/hal/atca_hal.o
 .debug_aranges
                0x00000000000005d0      0x110 build/default/production/mcc_generated_files/CryptoAuthenticationLibrary/atca_command.o
 .debug_aranges
                0x00000000000006e0       0x38 build/default/production/mcc_generated_files/CryptoAuthenticationLibrary/atca_device.o
 .debug_aranges
                0x0000000000000718       0x28 build/default/production/mcc_generated_files/CryptoAuthenticationLibrary/atca_execution.o
 .debug_aranges
                0x0000000000000740       0x70 build/default/production/mcc_generated_files/CryptoAuthenticationLibrary/atca_iface.o
 .debug_aranges
                0x00000000000007b0       0xc0 build/default/production/mcc_generated_files/drivers/timeout.o
 .debug_aranges
                0x0000000000000870       0x18 build/default/production/mcc_generated_files/drivers/uart.o
 .debug_aranges
                0x0000000000000888       0x28 build/default/production/mcc_generated_files/drivers/spi_master.o
 .debug_aranges
                0x00000000000008b0       0x78 build/default/production/mcc_generated_files/drivers/i2c_simple_master.o
 .debug_aranges
                0x0000000000000928       0x48 build/default/production/mcc_generated_files/mqtt/mqtt_comm_bsd/mqtt_comm_layer.o
 .debug_aranges
                0x0000000000000970       0xb0 build/default/production/mcc_generated_files/mqtt/mqtt_core/mqtt_core.o
 .debug_aranges
                0x0000000000000a20       0x38 build/default/production/mcc_generated_files/mqtt/mqtt_exchange_buffer/mqtt_exchange_buffer.o
 .debug_aranges
                0x0000000000000a58       0xe0 build/default/production/mcc_generated_files/mqtt/mqtt_winc_adapter.o
 .debug_aranges
                0x0000000000000b38       0x28 build/default/production/mcc_generated_files/mqtt/mqtt_packetTransfer_interface.o
 .debug_aranges
                0x0000000000000b60       0x20 build/default/production/mcc_generated_files/src/protected_io.o
 .debug_aranges
                0x0000000000000b80      0x1f8 build/default/production/mcc_generated_files/src/twi0_master.o
 .debug_aranges
                0x0000000000000d78       0xa8 build/default/production/mcc_generated_files/src/adc0.o
 .debug_aranges
                0x0000000000000e20       0xc0 build/default/production/mcc_generated_files/src/usart2.o
 .debug_aranges
                0x0000000000000ee0       0x20 build/default/production/mcc_generated_files/src/cpuint.o
 .debug_aranges
                0x0000000000000f00      0x190 build/default/production/mcc_generated_files/src/pin_manager.o
 .debug_aranges
                0x0000000000001090       0xa8 build/default/production/mcc_generated_files/src/rtc.o
 .debug_aranges
                0x0000000000001138       0x98 build/default/production/mcc_generated_files/src/spi0.o
 .debug_aranges
                0x00000000000011d0       0x68 build/default/production/mcc_generated_files/winc/driver/winc_asic.o
 .debug_aranges
                0x0000000000001238       0x68 build/default/production/mcc_generated_files/winc/driver/winc_hif.o
 .debug_aranges
                0x00000000000012a0       0x98 build/default/production/mcc_generated_files/winc/driver/winc_spi.o
 .debug_aranges
                0x0000000000001338       0x88 build/default/production/mcc_generated_files/winc/driver/winc_adapter.o
 .debug_aranges
                0x00000000000013c0       0x30 build/default/production/mcc_generated_files/winc/driver/winc_drv.o
 .debug_aranges
                0x00000000000013f0       0x28 build/default/production/mcc_generated_files/winc/m2m/m2m_fwinfo.o
 .debug_aranges
                0x0000000000001418       0x60 build/default/production/mcc_generated_files/winc/m2m/m2m_ssl.o
 .debug_aranges
                0x0000000000001478      0x248 build/default/production/mcc_generated_files/winc/m2m/m2m_wifi.o
 .debug_aranges
                0x00000000000016c0       0xd8 build/default/production/mcc_generated_files/winc/socket/socket.o
 .debug_aranges
                0x0000000000001798       0x60 build/default/production/mcc_generated_files/winc/spi_flash/spi_flash.o
 .debug_aranges
                0x00000000000017f8       0x18 build/default/production/mcc_generated_files/device_config.o
 .debug_aranges
                0x0000000000001810       0x38 build/default/production/mcc_generated_files/debug_print.o
 .debug_aranges
                0x0000000000001848      0x120 build/default/production/mcc_generated_files/application_manager.o
 .debug_aranges
                0x0000000000001968       0x68 build/default/production/mcc_generated_files/led.o
 .debug_aranges
                0x00000000000019d0       0x28 build/default/production/mcc_generated_files/delay.o
 .debug_aranges
                0x00000000000019f8       0x48 build/default/production/mcc_generated_files/mcc.o
 .debug_aranges
                0x0000000000001a40       0x20 build/default/production/mcc_generated_files/CryptoAuth_init.o
 .debug_aranges
                0x0000000000001a60       0x70 build/default/production/mcc_generated_files/time_service.o
 .debug_aranges
                0x0000000000001ad0       0x20 build/default/production/main.o
 .debug_aranges
                0x0000000000001af0       0x78 build/default/production/mcc_generated_files/src/usart1.o

.debug_pubnames
 *(.debug_pubnames)

.debug_info     0x0000000000000000    0x3e82d
 *(.debug_info .gnu.linkonce.wi.*)
 .debug_info    0x0000000000000000     0x229c C:/Program Files/Microchip/MPLABX/v5.45/packs/Microchip/ATmega_DFP/2.2.108/xc8/avr/lib/avrxmega3/crtatmega4808.o
 .debug_info    0x000000000000229c     0x12f6 build/default/production/mcc_generated_files/cli/cli.o
 .debug_info    0x0000000000003592     0x1981 build/default/production/mcc_generated_files/cloud/crypto_client/crypto_client.o
 .debug_info    0x0000000000004f13     0x16ad build/default/production/mcc_generated_files/cloud/cloud_service.o
 .debug_info    0x00000000000065c0     0x1c82 build/default/production/mcc_generated_files/cloud/wifi_service.o
 .debug_info    0x0000000000008242      0xd64 build/default/production/mcc_generated_files/cloud/mqtt_service.o
 .debug_info    0x0000000000008fa6     0x149f build/default/production/mcc_generated_files/cloud/aws_cloud_service.o
 .debug_info    0x000000000000a445      0x352 build/default/production/mcc_generated_files/credentials_storage/credentials_storage.o
 .debug_info    0x000000000000a797      0xf9b build/default/production/mcc_generated_files/CryptoAuthenticationLibrary/basic/atca_basic_sign.o
 .debug_info    0x000000000000b732     0x1265 build/default/production/mcc_generated_files/CryptoAuthenticationLibrary/basic/atca_basic.o
 .debug_info    0x000000000000c997      0xf4f build/default/production/mcc_generated_files/CryptoAuthenticationLibrary/basic/atca_basic_lock.o
 .debug_info    0x000000000000d8e6     0x12ad build/default/production/mcc_generated_files/CryptoAuthenticationLibrary/basic/atca_basic_ecdh.o
 .debug_info    0x000000000000eb93     0x1725 build/default/production/mcc_generated_files/CryptoAuthenticationLibrary/basic/atca_basic_verify.o
 .debug_info    0x00000000000102b8      0xed2 build/default/production/mcc_generated_files/CryptoAuthenticationLibrary/basic/atca_basic_genkey.o
 .debug_info    0x000000000001118a     0x1068 build/default/production/mcc_generated_files/CryptoAuthenticationLibrary/basic/atca_basic_nonce.o
 .debug_info    0x00000000000121f2     0x1c77 build/default/production/mcc_generated_files/CryptoAuthenticationLibrary/basic/atca_basic_read.o
 .debug_info    0x0000000000013e69      0xda4 build/default/production/mcc_generated_files/CryptoAuthenticationLibrary/basic/atca_basic_random.o
 .debug_info    0x0000000000014c0d      0x3c2 build/default/production/mcc_generated_files/CryptoAuthenticationLibrary/hal/hal_i2c_timer.o
 .debug_info    0x0000000000014fcf     0x106c build/default/production/mcc_generated_files/CryptoAuthenticationLibrary/hal/atca_i2c_hal.o
 .debug_info    0x000000000001603b      0xdf4 build/default/production/mcc_generated_files/CryptoAuthenticationLibrary/hal/atca_hal.o
 .debug_info    0x0000000000016e2f     0x127d build/default/production/mcc_generated_files/CryptoAuthenticationLibrary/atca_command.o
 .debug_info    0x00000000000180ac      0xd7d build/default/production/mcc_generated_files/CryptoAuthenticationLibrary/atca_device.o
 .debug_info    0x0000000000018e29     0x108e build/default/production/mcc_generated_files/CryptoAuthenticationLibrary/atca_execution.o
 .debug_info    0x0000000000019eb7     0x107d build/default/production/mcc_generated_files/CryptoAuthenticationLibrary/atca_iface.o
 .debug_info    0x000000000001af34      0xeab build/default/production/mcc_generated_files/drivers/timeout.o
 .debug_info    0x000000000001bddf      0x3aa build/default/production/mcc_generated_files/drivers/uart.o
 .debug_info    0x000000000001c189      0x4de build/default/production/mcc_generated_files/drivers/spi_master.o
 .debug_info    0x000000000001c667      0xc3b build/default/production/mcc_generated_files/drivers/i2c_simple_master.o
 .debug_info    0x000000000001d2a2      0x639 build/default/production/mcc_generated_files/mqtt/mqtt_comm_bsd/mqtt_comm_layer.o
 .debug_info    0x000000000001d8db     0x31b1 build/default/production/mcc_generated_files/mqtt/mqtt_core/mqtt_core.o
 .debug_info    0x0000000000020a8c      0x4be build/default/production/mcc_generated_files/mqtt/mqtt_exchange_buffer/mqtt_exchange_buffer.o
 .debug_info    0x0000000000020f4a     0x2650 build/default/production/mcc_generated_files/mqtt/mqtt_winc_adapter.o
 .debug_info    0x000000000002359a      0x350 build/default/production/mcc_generated_files/mqtt/mqtt_packetTransfer_interface.o
 .debug_info    0x00000000000238ea       0x76 build/default/production/mcc_generated_files/src/protected_io.o
 .debug_info    0x0000000000023960     0x19f4 build/default/production/mcc_generated_files/src/twi0_master.o
 .debug_info    0x0000000000025354      0xb23 build/default/production/mcc_generated_files/src/adc0.o
 .debug_info    0x0000000000025e77      0xaff build/default/production/mcc_generated_files/src/usart2.o
 .debug_info    0x0000000000026976      0x3c9 build/default/production/mcc_generated_files/src/cpuint.o
 .debug_info    0x0000000000026d3f     0x1631 build/default/production/mcc_generated_files/src/pin_manager.o
 .debug_info    0x0000000000028370      0x87a build/default/production/mcc_generated_files/src/rtc.o
 .debug_info    0x0000000000028bea      0x795 build/default/production/mcc_generated_files/src/spi0.o
 .debug_info    0x000000000002937f      0xdca build/default/production/mcc_generated_files/winc/driver/winc_asic.o
 .debug_info    0x000000000002a149      0xb49 build/default/production/mcc_generated_files/winc/driver/winc_hif.o
 .debug_info    0x000000000002ac92      0xd87 build/default/production/mcc_generated_files/winc/driver/winc_spi.o
 .debug_info    0x000000000002ba19      0xa6b build/default/production/mcc_generated_files/winc/driver/winc_adapter.o
 .debug_info    0x000000000002c484      0x553 build/default/production/mcc_generated_files/winc/driver/winc_drv.o
 .debug_info    0x000000000002c9d7      0x65c build/default/production/mcc_generated_files/winc/m2m/m2m_fwinfo.o
 .debug_info    0x000000000002d033     0x104c build/default/production/mcc_generated_files/winc/m2m/m2m_ssl.o
 .debug_info    0x000000000002e07f     0x5513 build/default/production/mcc_generated_files/winc/m2m/m2m_wifi.o
 .debug_info    0x0000000000033592     0x26d3 build/default/production/mcc_generated_files/winc/socket/socket.o
 .debug_info    0x0000000000035c65     0x1564 build/default/production/mcc_generated_files/winc/spi_flash/spi_flash.o
 .debug_info    0x00000000000371c9      0x7d8 build/default/production/mcc_generated_files/device_config.o
 .debug_info    0x00000000000379a1      0x65b build/default/production/mcc_generated_files/debug_print.o
 .debug_info    0x0000000000037ffc     0x309f build/default/production/mcc_generated_files/application_manager.o
 .debug_info    0x000000000003b09b      0xc5a build/default/production/mcc_generated_files/led.o
 .debug_info    0x000000000003bcf5      0x3fb build/default/production/mcc_generated_files/delay.o
 .debug_info    0x000000000003c0f0      0xa1b build/default/production/mcc_generated_files/mcc.o
 .debug_info    0x000000000003cb0b      0xd09 build/default/production/mcc_generated_files/CryptoAuth_init.o
 .debug_info    0x000000000003d814      0x87a build/default/production/mcc_generated_files/time_service.o
 .debug_info    0x000000000003e08e      0x1e5 build/default/production/main.o
 .debug_info    0x000000000003e273      0x5ba build/default/production/mcc_generated_files/src/usart1.o

.debug_abbrev   0x0000000000000000     0x909e
 *(.debug_abbrev)
 .debug_abbrev  0x0000000000000000     0x20c2 C:/Program Files/Microchip/MPLABX/v5.45/packs/Microchip/ATmega_DFP/2.2.108/xc8/avr/lib/avrxmega3/crtatmega4808.o
 .debug_abbrev  0x00000000000020c2      0x3f9 build/default/production/mcc_generated_files/cli/cli.o
 .debug_abbrev  0x00000000000024bb      0x2cc build/default/production/mcc_generated_files/cloud/crypto_client/crypto_client.o
 .debug_abbrev  0x0000000000002787      0x3d4 build/default/production/mcc_generated_files/cloud/cloud_service.o
 .debug_abbrev  0x0000000000002b5b      0x2f8 build/default/production/mcc_generated_files/cloud/wifi_service.o
 .debug_abbrev  0x0000000000002e53      0x285 build/default/production/mcc_generated_files/cloud/mqtt_service.o
 .debug_abbrev  0x00000000000030d8      0x238 build/default/production/mcc_generated_files/cloud/aws_cloud_service.o
 .debug_abbrev  0x0000000000003310       0x69 build/default/production/mcc_generated_files/credentials_storage/credentials_storage.o
 .debug_abbrev  0x0000000000003379      0x19c build/default/production/mcc_generated_files/CryptoAuthenticationLibrary/basic/atca_basic_sign.o
 .debug_abbrev  0x0000000000003515      0x21b build/default/production/mcc_generated_files/CryptoAuthenticationLibrary/basic/atca_basic.o
 .debug_abbrev  0x0000000000003730      0x179 build/default/production/mcc_generated_files/CryptoAuthenticationLibrary/basic/atca_basic_lock.o
 .debug_abbrev  0x00000000000038a9      0x1dc build/default/production/mcc_generated_files/CryptoAuthenticationLibrary/basic/atca_basic_ecdh.o
 .debug_abbrev  0x0000000000003a85      0x23d build/default/production/mcc_generated_files/CryptoAuthenticationLibrary/basic/atca_basic_verify.o
 .debug_abbrev  0x0000000000003cc2      0x16e build/default/production/mcc_generated_files/CryptoAuthenticationLibrary/basic/atca_basic_genkey.o
 .debug_abbrev  0x0000000000003e30      0x180 build/default/production/mcc_generated_files/CryptoAuthenticationLibrary/basic/atca_basic_nonce.o
 .debug_abbrev  0x0000000000003fb0      0x2e2 build/default/production/mcc_generated_files/CryptoAuthenticationLibrary/basic/atca_basic_read.o
 .debug_abbrev  0x0000000000004292      0x158 build/default/production/mcc_generated_files/CryptoAuthenticationLibrary/basic/atca_basic_random.o
 .debug_abbrev  0x00000000000043ea      0x10d build/default/production/mcc_generated_files/CryptoAuthenticationLibrary/hal/hal_i2c_timer.o
 .debug_abbrev  0x00000000000044f7      0x190 build/default/production/mcc_generated_files/CryptoAuthenticationLibrary/hal/atca_i2c_hal.o
 .debug_abbrev  0x0000000000004687      0x18d build/default/production/mcc_generated_files/CryptoAuthenticationLibrary/hal/atca_hal.o
 .debug_abbrev  0x0000000000004814      0x1b7 build/default/production/mcc_generated_files/CryptoAuthenticationLibrary/atca_command.o
 .debug_abbrev  0x00000000000049cb      0x124 build/default/production/mcc_generated_files/CryptoAuthenticationLibrary/atca_device.o
 .debug_abbrev  0x0000000000004aef      0x1b5 build/default/production/mcc_generated_files/CryptoAuthenticationLibrary/atca_execution.o
 .debug_abbrev  0x0000000000004ca4      0x1e4 build/default/production/mcc_generated_files/CryptoAuthenticationLibrary/atca_iface.o
 .debug_abbrev  0x0000000000004e88      0x315 build/default/production/mcc_generated_files/drivers/timeout.o
 .debug_abbrev  0x000000000000519d       0x97 build/default/production/mcc_generated_files/drivers/uart.o
 .debug_abbrev  0x0000000000005234      0x126 build/default/production/mcc_generated_files/drivers/spi_master.o
 .debug_abbrev  0x000000000000535a      0x14e build/default/production/mcc_generated_files/drivers/i2c_simple_master.o
 .debug_abbrev  0x00000000000054a8      0x15c build/default/production/mcc_generated_files/mqtt/mqtt_comm_bsd/mqtt_comm_layer.o
 .debug_abbrev  0x0000000000005604      0x363 build/default/production/mcc_generated_files/mqtt/mqtt_core/mqtt_core.o
 .debug_abbrev  0x0000000000005967       0xdf build/default/production/mcc_generated_files/mqtt/mqtt_exchange_buffer/mqtt_exchange_buffer.o
 .debug_abbrev  0x0000000000005a46      0x344 build/default/production/mcc_generated_files/mqtt/mqtt_winc_adapter.o
 .debug_abbrev  0x0000000000005d8a       0x9b build/default/production/mcc_generated_files/mqtt/mqtt_packetTransfer_interface.o
 .debug_abbrev  0x0000000000005e25       0x14 build/default/production/mcc_generated_files/src/protected_io.o
 .debug_abbrev  0x0000000000005e39      0x383 build/default/production/mcc_generated_files/src/twi0_master.o
 .debug_abbrev  0x00000000000061bc      0x24c build/default/production/mcc_generated_files/src/adc0.o
 .debug_abbrev  0x0000000000006408      0x2c9 build/default/production/mcc_generated_files/src/usart2.o
 .debug_abbrev  0x00000000000066d1       0xfa build/default/production/mcc_generated_files/src/cpuint.o
 .debug_abbrev  0x00000000000067cb      0x1c8 build/default/production/mcc_generated_files/src/pin_manager.o
 .debug_abbrev  0x0000000000006993      0x164 build/default/production/mcc_generated_files/src/rtc.o
 .debug_abbrev  0x0000000000006af7      0x1c4 build/default/production/mcc_generated_files/src/spi0.o
 .debug_abbrev  0x0000000000006cbb      0x18f build/default/production/mcc_generated_files/winc/driver/winc_asic.o
 .debug_abbrev  0x0000000000006e4a      0x1da build/default/production/mcc_generated_files/winc/driver/winc_hif.o
 .debug_abbrev  0x0000000000007024      0x272 build/default/production/mcc_generated_files/winc/driver/winc_spi.o
 .debug_abbrev  0x0000000000007296      0x207 build/default/production/mcc_generated_files/winc/driver/winc_adapter.o
 .debug_abbrev  0x000000000000749d       0xac build/default/production/mcc_generated_files/winc/driver/winc_drv.o
 .debug_abbrev  0x0000000000007549      0x141 build/default/production/mcc_generated_files/winc/m2m/m2m_fwinfo.o
 .debug_abbrev  0x000000000000768a      0x24b build/default/production/mcc_generated_files/winc/m2m/m2m_ssl.o
 .debug_abbrev  0x00000000000078d5      0x389 build/default/production/mcc_generated_files/winc/m2m/m2m_wifi.o
 .debug_abbrev  0x0000000000007c5e      0x35e build/default/production/mcc_generated_files/winc/socket/socket.o
 .debug_abbrev  0x0000000000007fbc      0x1d1 build/default/production/mcc_generated_files/winc/spi_flash/spi_flash.o
 .debug_abbrev  0x000000000000818d       0x97 build/default/production/mcc_generated_files/device_config.o
 .debug_abbrev  0x0000000000008224      0x180 build/default/production/mcc_generated_files/debug_print.o
 .debug_abbrev  0x00000000000083a4      0x39f build/default/production/mcc_generated_files/application_manager.o
 .debug_abbrev  0x0000000000008743      0x225 build/default/production/mcc_generated_files/led.o
 .debug_abbrev  0x0000000000008968      0x11e build/default/production/mcc_generated_files/delay.o
 .debug_abbrev  0x0000000000008a86      0x17b build/default/production/mcc_generated_files/mcc.o
 .debug_abbrev  0x0000000000008c01      0x128 build/default/production/mcc_generated_files/CryptoAuth_init.o
 .debug_abbrev  0x0000000000008d29      0x1f7 build/default/production/mcc_generated_files/time_service.o
 .debug_abbrev  0x0000000000008f20       0x5d build/default/production/main.o
 .debug_abbrev  0x0000000000008f7d      0x121 build/default/production/mcc_generated_files/src/usart1.o

.debug_line     0x0000000000000000    0x1018c
 *(.debug_line .debug_line.* .debug_line_end)
 .debug_line    0x0000000000000000      0x16f C:/Program Files/Microchip/MPLABX/v5.45/packs/Microchip/ATmega_DFP/2.2.108/xc8/avr/lib/avrxmega3/crtatmega4808.o
 .debug_line    0x000000000000016f      0x660 build/default/production/mcc_generated_files/cli/cli.o
 .debug_line    0x00000000000007cf      0x57c build/default/production/mcc_generated_files/cloud/crypto_client/crypto_client.o
 .debug_line    0x0000000000000d4b      0x6a7 build/default/production/mcc_generated_files/cloud/cloud_service.o
 .debug_line    0x00000000000013f2      0x703 build/default/production/mcc_generated_files/cloud/wifi_service.o
 .debug_line    0x0000000000001af5      0x2f3 build/default/production/mcc_generated_files/cloud/mqtt_service.o
 .debug_line    0x0000000000001de8      0x606 build/default/production/mcc_generated_files/cloud/aws_cloud_service.o
 .debug_line    0x00000000000023ee       0xbe build/default/production/mcc_generated_files/credentials_storage/credentials_storage.o
 .debug_line    0x00000000000024ac      0x21f build/default/production/mcc_generated_files/CryptoAuthenticationLibrary/basic/atca_basic_sign.o
 .debug_line    0x00000000000026cb      0x530 build/default/production/mcc_generated_files/CryptoAuthenticationLibrary/basic/atca_basic.o
 .debug_line    0x0000000000002bfb      0x21c build/default/production/mcc_generated_files/CryptoAuthenticationLibrary/basic/atca_basic_lock.o
 .debug_line    0x0000000000002e17      0x378 build/default/production/mcc_generated_files/CryptoAuthenticationLibrary/basic/atca_basic_ecdh.o
 .debug_line    0x000000000000318f      0x531 build/default/production/mcc_generated_files/CryptoAuthenticationLibrary/basic/atca_basic_verify.o
 .debug_line    0x00000000000036c0      0x1e5 build/default/production/mcc_generated_files/CryptoAuthenticationLibrary/basic/atca_basic_genkey.o
 .debug_line    0x00000000000038a5      0x28f build/default/production/mcc_generated_files/CryptoAuthenticationLibrary/basic/atca_basic_nonce.o
 .debug_line    0x0000000000003b34      0x663 build/default/production/mcc_generated_files/CryptoAuthenticationLibrary/basic/atca_basic_read.o
 .debug_line    0x0000000000004197      0x19f build/default/production/mcc_generated_files/CryptoAuthenticationLibrary/basic/atca_basic_random.o
 .debug_line    0x0000000000004336      0x143 build/default/production/mcc_generated_files/CryptoAuthenticationLibrary/hal/hal_i2c_timer.o
 .debug_line    0x0000000000004479      0x2ec build/default/production/mcc_generated_files/CryptoAuthenticationLibrary/hal/atca_i2c_hal.o
 .debug_line    0x0000000000004765      0x1fc build/default/production/mcc_generated_files/CryptoAuthenticationLibrary/hal/atca_hal.o
 .debug_line    0x0000000000004961      0x7dd build/default/production/mcc_generated_files/CryptoAuthenticationLibrary/atca_command.o
 .debug_line    0x000000000000513e      0x19f build/default/production/mcc_generated_files/CryptoAuthenticationLibrary/atca_device.o
 .debug_line    0x00000000000052dd      0x28c build/default/production/mcc_generated_files/CryptoAuthenticationLibrary/atca_execution.o
 .debug_line    0x0000000000005569      0x2df build/default/production/mcc_generated_files/CryptoAuthenticationLibrary/atca_iface.o
 .debug_line    0x0000000000005848      0x6e6 build/default/production/mcc_generated_files/drivers/timeout.o
 .debug_line    0x0000000000005f2e       0x8b build/default/production/mcc_generated_files/drivers/uart.o
 .debug_line    0x0000000000005fb9      0x15b build/default/production/mcc_generated_files/drivers/spi_master.o
 .debug_line    0x0000000000006114      0x3ad build/default/production/mcc_generated_files/drivers/i2c_simple_master.o
 .debug_line    0x00000000000064c1      0x27c build/default/production/mcc_generated_files/mqtt/mqtt_comm_bsd/mqtt_comm_layer.o
 .debug_line    0x000000000000673d      0xb7a build/default/production/mcc_generated_files/mqtt/mqtt_core/mqtt_core.o
 .debug_line    0x00000000000072b7      0x1f0 build/default/production/mcc_generated_files/mqtt/mqtt_exchange_buffer/mqtt_exchange_buffer.o
 .debug_line    0x00000000000074a7      0x9c0 build/default/production/mcc_generated_files/mqtt/mqtt_winc_adapter.o
 .debug_line    0x0000000000007e67       0xe6 build/default/production/mcc_generated_files/mqtt/mqtt_packetTransfer_interface.o
 .debug_line    0x0000000000007f4d       0x66 build/default/production/mcc_generated_files/src/protected_io.o
 .debug_line    0x0000000000007fb3      0xb04 build/default/production/mcc_generated_files/src/twi0_master.o
 .debug_line    0x0000000000008ab7      0x35f build/default/production/mcc_generated_files/src/adc0.o
 .debug_line    0x0000000000008e16      0x44d build/default/production/mcc_generated_files/src/usart2.o
 .debug_line    0x0000000000009263      0x189 build/default/production/mcc_generated_files/src/cpuint.o
 .debug_line    0x00000000000093ec      0x6e7 build/default/production/mcc_generated_files/src/pin_manager.o
 .debug_line    0x0000000000009ad3      0x369 build/default/production/mcc_generated_files/src/rtc.o
 .debug_line    0x0000000000009e3c      0x3ac build/default/production/mcc_generated_files/src/spi0.o
 .debug_line    0x000000000000a1e8      0x3bf build/default/production/mcc_generated_files/winc/driver/winc_asic.o
 .debug_line    0x000000000000a5a7      0x3b8 build/default/production/mcc_generated_files/winc/driver/winc_hif.o
 .debug_line    0x000000000000a95f      0x5ec build/default/production/mcc_generated_files/winc/driver/winc_spi.o
 .debug_line    0x000000000000af4b      0x413 build/default/production/mcc_generated_files/winc/driver/winc_adapter.o
 .debug_line    0x000000000000b35e      0x1e0 build/default/production/mcc_generated_files/winc/driver/winc_drv.o
 .debug_line    0x000000000000b53e      0x1f1 build/default/production/mcc_generated_files/winc/m2m/m2m_fwinfo.o
 .debug_line    0x000000000000b72f      0x46b build/default/production/mcc_generated_files/winc/m2m/m2m_ssl.o
 .debug_line    0x000000000000bb9a     0x105e build/default/production/mcc_generated_files/winc/m2m/m2m_wifi.o
 .debug_line    0x000000000000cbf8      0xe97 build/default/production/mcc_generated_files/winc/socket/socket.o
 .debug_line    0x000000000000da8f      0x517 build/default/production/mcc_generated_files/winc/spi_flash/spi_flash.o
 .debug_line    0x000000000000dfa6       0xee build/default/production/mcc_generated_files/device_config.o
 .debug_line    0x000000000000e094      0x176 build/default/production/mcc_generated_files/debug_print.o
 .debug_line    0x000000000000e20a     0x10e2 build/default/production/mcc_generated_files/application_manager.o
 .debug_line    0x000000000000f2ec      0x3be build/default/production/mcc_generated_files/led.o
 .debug_line    0x000000000000f6aa      0x12d build/default/production/mcc_generated_files/delay.o
 .debug_line    0x000000000000f7d7      0x31c build/default/production/mcc_generated_files/mcc.o
 .debug_line    0x000000000000faf3      0x185 build/default/production/mcc_generated_files/CryptoAuth_init.o
 .debug_line    0x000000000000fc78      0x233 build/default/production/mcc_generated_files/time_service.o
 .debug_line    0x000000000000feab       0x71 build/default/production/main.o
 .debug_line    0x000000000000ff1c      0x270 build/default/production/mcc_generated_files/src/usart1.o

.debug_frame    0x0000000000000000     0x5678
 *(.debug_frame)
 .debug_frame   0x0000000000000000      0x1b0 build/default/production/mcc_generated_files/cli/cli.o
 .debug_frame   0x00000000000001b0      0x1f8 build/default/production/mcc_generated_files/cloud/crypto_client/crypto_client.o
 .debug_frame   0x00000000000003a8      0x2b4 build/default/production/mcc_generated_files/cloud/cloud_service.o
 .debug_frame   0x000000000000065c      0x2c0 build/default/production/mcc_generated_files/cloud/wifi_service.o
 .debug_frame   0x000000000000091c       0xf0 build/default/production/mcc_generated_files/cloud/mqtt_service.o
 .debug_frame   0x0000000000000a0c      0x13c build/default/production/mcc_generated_files/cloud/aws_cloud_service.o
 .debug_frame   0x0000000000000b48       0x24 build/default/production/mcc_generated_files/credentials_storage/credentials_storage.o
 .debug_frame   0x0000000000000b6c       0x84 build/default/production/mcc_generated_files/CryptoAuthenticationLibrary/basic/atca_basic_sign.o
 .debug_frame   0x0000000000000bf0      0x154 build/default/production/mcc_generated_files/CryptoAuthenticationLibrary/basic/atca_basic.o
 .debug_frame   0x0000000000000d44       0x88 build/default/production/mcc_generated_files/CryptoAuthenticationLibrary/basic/atca_basic_lock.o
 .debug_frame   0x0000000000000dcc      0x170 build/default/production/mcc_generated_files/CryptoAuthenticationLibrary/basic/atca_basic_ecdh.o
 .debug_frame   0x0000000000000f3c      0x218 build/default/production/mcc_generated_files/CryptoAuthenticationLibrary/basic/atca_basic_verify.o
 .debug_frame   0x0000000000001154       0x60 build/default/production/mcc_generated_files/CryptoAuthenticationLibrary/basic/atca_basic_genkey.o
 .debug_frame   0x00000000000011b4       0x9c build/default/production/mcc_generated_files/CryptoAuthenticationLibrary/basic/atca_basic_nonce.o
 .debug_frame   0x0000000000001250      0x2c0 build/default/production/mcc_generated_files/CryptoAuthenticationLibrary/basic/atca_basic_read.o
 .debug_frame   0x0000000000001510       0x40 build/default/production/mcc_generated_files/CryptoAuthenticationLibrary/basic/atca_basic_random.o
 .debug_frame   0x0000000000001550       0x34 build/default/production/mcc_generated_files/CryptoAuthenticationLibrary/hal/hal_i2c_timer.o
 .debug_frame   0x0000000000001584      0x110 build/default/production/mcc_generated_files/CryptoAuthenticationLibrary/hal/atca_i2c_hal.o
 .debug_frame   0x0000000000001694       0x60 build/default/production/mcc_generated_files/CryptoAuthenticationLibrary/hal/atca_hal.o
 .debug_frame   0x00000000000016f4      0x254 build/default/production/mcc_generated_files/CryptoAuthenticationLibrary/atca_command.o
 .debug_frame   0x0000000000001948       0x68 build/default/production/mcc_generated_files/CryptoAuthenticationLibrary/atca_device.o
 .debug_frame   0x00000000000019b0       0x74 build/default/production/mcc_generated_files/CryptoAuthenticationLibrary/atca_execution.o
 .debug_frame   0x0000000000001a24      0x11c build/default/production/mcc_generated_files/CryptoAuthenticationLibrary/atca_iface.o
 .debug_frame   0x0000000000001b40      0x2c4 build/default/production/mcc_generated_files/drivers/timeout.o
 .debug_frame   0x0000000000001e04       0x34 build/default/production/mcc_generated_files/drivers/spi_master.o
 .debug_frame   0x0000000000001e38      0x18c build/default/production/mcc_generated_files/drivers/i2c_simple_master.o
 .debug_frame   0x0000000000001fc4       0x90 build/default/production/mcc_generated_files/mqtt/mqtt_comm_bsd/mqtt_comm_layer.o
 .debug_frame   0x0000000000002054      0x230 build/default/production/mcc_generated_files/mqtt/mqtt_core/mqtt_core.o
 .debug_frame   0x0000000000002284       0xb4 build/default/production/mcc_generated_files/mqtt/mqtt_exchange_buffer/mqtt_exchange_buffer.o
 .debug_frame   0x0000000000002338      0x35c build/default/production/mcc_generated_files/mqtt/mqtt_winc_adapter.o
 .debug_frame   0x0000000000002694       0x34 build/default/production/mcc_generated_files/mqtt/mqtt_packetTransfer_interface.o
 .debug_frame   0x00000000000026c8      0x43c build/default/production/mcc_generated_files/src/twi0_master.o
 .debug_frame   0x0000000000002b04      0x18c build/default/production/mcc_generated_files/src/adc0.o
 .debug_frame   0x0000000000002c90      0x210 build/default/production/mcc_generated_files/src/usart2.o
 .debug_frame   0x0000000000002ea0       0x24 build/default/production/mcc_generated_files/src/cpuint.o
 .debug_frame   0x0000000000002ec4      0x360 build/default/production/mcc_generated_files/src/pin_manager.o
 .debug_frame   0x0000000000003224      0x1c4 build/default/production/mcc_generated_files/src/rtc.o
 .debug_frame   0x00000000000033e8      0x114 build/default/production/mcc_generated_files/src/spi0.o
 .debug_frame   0x00000000000034fc      0x1a0 build/default/production/mcc_generated_files/winc/driver/winc_asic.o
 .debug_frame   0x000000000000369c      0x174 build/default/production/mcc_generated_files/winc/driver/winc_hif.o
 .debug_frame   0x0000000000003810      0x2b4 build/default/production/mcc_generated_files/winc/driver/winc_spi.o
 .debug_frame   0x0000000000003ac4      0x170 build/default/production/mcc_generated_files/winc/driver/winc_adapter.o
 .debug_frame   0x0000000000003c34       0x58 build/default/production/mcc_generated_files/winc/driver/winc_drv.o
 .debug_frame   0x0000000000003c8c       0x54 build/default/production/mcc_generated_files/winc/m2m/m2m_fwinfo.o
 .debug_frame   0x0000000000003ce0      0x190 build/default/production/mcc_generated_files/winc/m2m/m2m_ssl.o
 .debug_frame   0x0000000000003e70      0x82c build/default/production/mcc_generated_files/winc/m2m/m2m_wifi.o
 .debug_frame   0x000000000000469c      0x398 build/default/production/mcc_generated_files/winc/socket/socket.o
 .debug_frame   0x0000000000004a34      0x26c build/default/production/mcc_generated_files/winc/spi_flash/spi_flash.o
 .debug_frame   0x0000000000004ca0       0x64 build/default/production/mcc_generated_files/debug_print.o
 .debug_frame   0x0000000000004d04      0x5fc build/default/production/mcc_generated_files/application_manager.o
 .debug_frame   0x0000000000005300       0xc0 build/default/production/mcc_generated_files/led.o
 .debug_frame   0x00000000000053c0       0x34 build/default/production/mcc_generated_files/delay.o
 .debug_frame   0x00000000000053f4       0x84 build/default/production/mcc_generated_files/mcc.o
 .debug_frame   0x0000000000005478       0x24 build/default/production/mcc_generated_files/CryptoAuth_init.o
 .debug_frame   0x000000000000549c       0xe4 build/default/production/mcc_generated_files/time_service.o
 .debug_frame   0x0000000000005580       0x24 build/default/production/main.o
 .debug_frame   0x00000000000055a4       0xd4 build/default/production/mcc_generated_files/src/usart1.o

.debug_str      0x0000000000000000     0x2cfd
 *(.debug_str)
 .debug_str     0x0000000000000000      0xecd C:/Program Files/Microchip/MPLABX/v5.45/packs/Microchip/ATmega_DFP/2.2.108/xc8/avr/lib/avrxmega3/crtatmega4808.o
 .debug_str     0x0000000000000ecd       0x97 build/default/production/mcc_generated_files/cli/cli.o
 .debug_str     0x0000000000000f64      0x153 build/default/production/mcc_generated_files/cloud/crypto_client/crypto_client.o
 .debug_str     0x00000000000010b7      0x12f build/default/production/mcc_generated_files/cloud/cloud_service.o
 .debug_str     0x00000000000011e6      0x169 build/default/production/mcc_generated_files/cloud/wifi_service.o
 .debug_str     0x000000000000134f       0xe7 build/default/production/mcc_generated_files/cloud/mqtt_service.o
 .debug_str     0x0000000000001436      0x1a2 build/default/production/mcc_generated_files/cloud/aws_cloud_service.o
 .debug_str     0x00000000000015d8        0x0 build/default/production/mcc_generated_files/credentials_storage/credentials_storage.o
 .debug_str     0x00000000000015d8       0x4b build/default/production/mcc_generated_files/CryptoAuthenticationLibrary/basic/atca_basic_sign.o
 .debug_str     0x0000000000001623       0x9d build/default/production/mcc_generated_files/CryptoAuthenticationLibrary/basic/atca_basic.o
 .debug_str     0x00000000000016c0       0x21 build/default/production/mcc_generated_files/CryptoAuthenticationLibrary/basic/atca_basic_lock.o
 .debug_str     0x00000000000016e1       0x6d build/default/production/mcc_generated_files/CryptoAuthenticationLibrary/basic/atca_basic_ecdh.o
 .debug_str     0x000000000000174e       0xb7 build/default/production/mcc_generated_files/CryptoAuthenticationLibrary/basic/atca_basic_verify.o
 .debug_str     0x0000000000001805       0x30 build/default/production/mcc_generated_files/CryptoAuthenticationLibrary/basic/atca_basic_genkey.o
 .debug_str     0x0000000000001835       0x25 build/default/production/mcc_generated_files/CryptoAuthenticationLibrary/basic/atca_basic_nonce.o
 .debug_str     0x000000000000185a       0xd2 build/default/production/mcc_generated_files/CryptoAuthenticationLibrary/basic/atca_basic_read.o
 .debug_str     0x000000000000192c       0x1e build/default/production/mcc_generated_files/CryptoAuthenticationLibrary/basic/atca_basic_random.o
 .debug_str     0x000000000000194a       0x26 build/default/production/mcc_generated_files/CryptoAuthenticationLibrary/hal/hal_i2c_timer.o
 .debug_str     0x0000000000001970       0x59 build/default/production/mcc_generated_files/CryptoAuthenticationLibrary/hal/atca_i2c_hal.o
 .debug_str     0x00000000000019c9       0x4f build/default/production/mcc_generated_files/CryptoAuthenticationLibrary/hal/atca_hal.o
 .debug_str     0x0000000000001a18       0x1a build/default/production/mcc_generated_files/CryptoAuthenticationLibrary/atca_command.o
 .debug_str     0x0000000000001a32       0x2f build/default/production/mcc_generated_files/CryptoAuthenticationLibrary/atca_device.o
 .debug_str     0x0000000000001a61       0x5f build/default/production/mcc_generated_files/CryptoAuthenticationLibrary/atca_execution.o
 .debug_str     0x0000000000001ac0       0x7d build/default/production/mcc_generated_files/CryptoAuthenticationLibrary/atca_iface.o
 .debug_str     0x0000000000001b3d       0xaa build/default/production/mcc_generated_files/drivers/timeout.o
 .debug_str     0x0000000000001be7        0x0 build/default/production/mcc_generated_files/drivers/uart.o
 .debug_str     0x0000000000001be7       0x17 build/default/production/mcc_generated_files/drivers/spi_master.o
 .debug_str     0x0000000000001bfe       0x8b build/default/production/mcc_generated_files/drivers/i2c_simple_master.o
 .debug_str     0x0000000000001c89       0x67 build/default/production/mcc_generated_files/mqtt/mqtt_comm_bsd/mqtt_comm_layer.o
 .debug_str     0x0000000000001cf0      0x14a build/default/production/mcc_generated_files/mqtt/mqtt_core/mqtt_core.o
 .debug_str     0x0000000000001e3a        0xe build/default/production/mcc_generated_files/mqtt/mqtt_exchange_buffer/mqtt_exchange_buffer.o
 .debug_str     0x0000000000001e48       0x58 build/default/production/mcc_generated_files/mqtt/mqtt_winc_adapter.o
 .debug_str     0x0000000000001ea0        0x0 build/default/production/mcc_generated_files/mqtt/mqtt_packetTransfer_interface.o
 .debug_str     0x0000000000001ea0        0xf build/default/production/mcc_generated_files/src/twi0_master.o
 .debug_str     0x0000000000001eaf        0x8 build/default/production/mcc_generated_files/src/adc0.o
 .debug_str     0x0000000000001eb7        0x0 build/default/production/mcc_generated_files/src/usart2.o
 .debug_str     0x0000000000001eb7       0x13 build/default/production/mcc_generated_files/src/cpuint.o
 .debug_str     0x0000000000001eca       0x25 build/default/production/mcc_generated_files/src/pin_manager.o
 .debug_str     0x0000000000001eef        0x9 build/default/production/mcc_generated_files/src/rtc.o
 .debug_str     0x0000000000001ef8       0x17 build/default/production/mcc_generated_files/src/spi0.o
 .debug_str     0x0000000000001f0f       0xee build/default/production/mcc_generated_files/winc/driver/winc_asic.o
 .debug_str     0x0000000000001ffd      0x123 build/default/production/mcc_generated_files/winc/driver/winc_hif.o
 .debug_str     0x0000000000002120       0x72 build/default/production/mcc_generated_files/winc/driver/winc_spi.o
 .debug_str     0x0000000000002192       0x3a build/default/production/mcc_generated_files/winc/driver/winc_adapter.o
 .debug_str     0x00000000000021cc      0x129 build/default/production/mcc_generated_files/winc/driver/winc_drv.o
 .debug_str     0x00000000000022f5       0x2f build/default/production/mcc_generated_files/winc/m2m/m2m_fwinfo.o
 .debug_str     0x0000000000002324       0x49 build/default/production/mcc_generated_files/winc/m2m/m2m_ssl.o
 .debug_str     0x000000000000236d      0x401 build/default/production/mcc_generated_files/winc/m2m/m2m_wifi.o
 .debug_str     0x000000000000276e      0x163 build/default/production/mcc_generated_files/winc/socket/socket.o
 .debug_str     0x00000000000028d1       0xbd build/default/production/mcc_generated_files/winc/spi_flash/spi_flash.o
 .debug_str     0x000000000000298e        0x0 build/default/production/mcc_generated_files/device_config.o
 .debug_str     0x000000000000298e        0x0 build/default/production/mcc_generated_files/debug_print.o
 .debug_str     0x000000000000298e      0x1c2 build/default/production/mcc_generated_files/application_manager.o
 .debug_str     0x0000000000002b50       0x34 build/default/production/mcc_generated_files/led.o
 .debug_str     0x0000000000002b84       0x26 build/default/production/mcc_generated_files/delay.o
 .debug_str     0x0000000000002baa       0xde build/default/production/mcc_generated_files/mcc.o
 .debug_str     0x0000000000002c88       0x20 build/default/production/mcc_generated_files/CryptoAuth_init.o
 .debug_str     0x0000000000002ca8       0x37 build/default/production/mcc_generated_files/time_service.o
 .debug_str     0x0000000000002cdf       0x1e build/default/production/main.o
 .debug_str     0x0000000000002cfd        0x0 build/default/production/mcc_generated_files/src/usart1.o

.debug_loc      0x0000000000000000    0x11f72
 *(.debug_loc)
 .debug_loc     0x0000000000000000      0x3b0 build/default/production/mcc_generated_files/cli/cli.o
 .debug_loc     0x00000000000003b0      0x521 build/default/production/mcc_generated_files/cloud/crypto_client/crypto_client.o
 .debug_loc     0x00000000000008d1      0x20b build/default/production/mcc_generated_files/cloud/cloud_service.o
 .debug_loc     0x0000000000000adc      0x21c build/default/production/mcc_generated_files/cloud/wifi_service.o
 .debug_loc     0x0000000000000cf8      0x1a4 build/default/production/mcc_generated_files/cloud/mqtt_service.o
 .debug_loc     0x0000000000000e9c      0x2e4 build/default/production/mcc_generated_files/cloud/aws_cloud_service.o
 .debug_loc     0x0000000000001180      0x322 build/default/production/mcc_generated_files/CryptoAuthenticationLibrary/basic/atca_basic_sign.o
 .debug_loc     0x00000000000014a2      0x461 build/default/production/mcc_generated_files/CryptoAuthenticationLibrary/basic/atca_basic.o
 .debug_loc     0x0000000000001903      0x136 build/default/production/mcc_generated_files/CryptoAuthenticationLibrary/basic/atca_basic_lock.o
 .debug_loc     0x0000000000001a39      0x55c build/default/production/mcc_generated_files/CryptoAuthenticationLibrary/basic/atca_basic_ecdh.o
 .debug_loc     0x0000000000001f95      0xfdb build/default/production/mcc_generated_files/CryptoAuthenticationLibrary/basic/atca_basic_verify.o
 .debug_loc     0x0000000000002f70      0x1d8 build/default/production/mcc_generated_files/CryptoAuthenticationLibrary/basic/atca_basic_genkey.o
 .debug_loc     0x0000000000003148      0x447 build/default/production/mcc_generated_files/CryptoAuthenticationLibrary/basic/atca_basic_nonce.o
 .debug_loc     0x000000000000358f      0xee3 build/default/production/mcc_generated_files/CryptoAuthenticationLibrary/basic/atca_basic_read.o
 .debug_loc     0x0000000000004472       0x79 build/default/production/mcc_generated_files/CryptoAuthenticationLibrary/basic/atca_basic_random.o
 .debug_loc     0x00000000000044eb       0xf2 build/default/production/mcc_generated_files/CryptoAuthenticationLibrary/hal/hal_i2c_timer.o
 .debug_loc     0x00000000000045dd      0x2f5 build/default/production/mcc_generated_files/CryptoAuthenticationLibrary/hal/atca_i2c_hal.o
 .debug_loc     0x00000000000048d2      0x1a3 build/default/production/mcc_generated_files/CryptoAuthenticationLibrary/hal/atca_hal.o
 .debug_loc     0x0000000000004a75      0xb39 build/default/production/mcc_generated_files/CryptoAuthenticationLibrary/atca_command.o
 .debug_loc     0x00000000000055ae      0x19d build/default/production/mcc_generated_files/CryptoAuthenticationLibrary/atca_device.o
 .debug_loc     0x000000000000574b      0x239 build/default/production/mcc_generated_files/CryptoAuthenticationLibrary/atca_execution.o
 .debug_loc     0x0000000000005984      0x41b build/default/production/mcc_generated_files/CryptoAuthenticationLibrary/atca_iface.o
 .debug_loc     0x0000000000005d9f      0x88c build/default/production/mcc_generated_files/drivers/timeout.o
 .debug_loc     0x000000000000662b       0x3a build/default/production/mcc_generated_files/drivers/spi_master.o
 .debug_loc     0x0000000000006665      0x512 build/default/production/mcc_generated_files/drivers/i2c_simple_master.o
 .debug_loc     0x0000000000006b77      0x11e build/default/production/mcc_generated_files/mqtt/mqtt_comm_bsd/mqtt_comm_layer.o
 .debug_loc     0x0000000000006c95      0xacc build/default/production/mcc_generated_files/mqtt/mqtt_core/mqtt_core.o
 .debug_loc     0x0000000000007761      0x30b build/default/production/mcc_generated_files/mqtt/mqtt_exchange_buffer/mqtt_exchange_buffer.o
 .debug_loc     0x0000000000007a6c     0x178a build/default/production/mcc_generated_files/mqtt/mqtt_winc_adapter.o
 .debug_loc     0x00000000000091f6      0x507 build/default/production/mcc_generated_files/src/twi0_master.o
 .debug_loc     0x00000000000096fd       0xa2 build/default/production/mcc_generated_files/src/adc0.o
 .debug_loc     0x000000000000979f      0x123 build/default/production/mcc_generated_files/src/usart2.o
 .debug_loc     0x00000000000098c2       0x2a build/default/production/mcc_generated_files/src/cpuint.o
 .debug_loc     0x00000000000098ec       0x78 build/default/production/mcc_generated_files/src/pin_manager.o
 .debug_loc     0x0000000000009964      0x27a build/default/production/mcc_generated_files/src/spi0.o
 .debug_loc     0x0000000000009bde      0x1e1 build/default/production/mcc_generated_files/winc/driver/winc_asic.o
 .debug_loc     0x0000000000009dbf      0x404 build/default/production/mcc_generated_files/winc/driver/winc_hif.o
 .debug_loc     0x000000000000a1c3      0x913 build/default/production/mcc_generated_files/winc/driver/winc_spi.o
 .debug_loc     0x000000000000aad6      0x1d3 build/default/production/mcc_generated_files/winc/driver/winc_adapter.o
 .debug_loc     0x000000000000aca9       0x9a build/default/production/mcc_generated_files/winc/driver/winc_drv.o
 .debug_loc     0x000000000000ad43      0x228 build/default/production/mcc_generated_files/winc/m2m/m2m_fwinfo.o
 .debug_loc     0x000000000000af6b      0x7c1 build/default/production/mcc_generated_files/winc/m2m/m2m_ssl.o
 .debug_loc     0x000000000000b72c     0x1e98 build/default/production/mcc_generated_files/winc/m2m/m2m_wifi.o
 .debug_loc     0x000000000000d5c4     0x2194 build/default/production/mcc_generated_files/winc/socket/socket.o
 .debug_loc     0x000000000000f758      0x732 build/default/production/mcc_generated_files/winc/spi_flash/spi_flash.o
 .debug_loc     0x000000000000fe8a       0xb8 build/default/production/mcc_generated_files/debug_print.o
 .debug_loc     0x000000000000ff42     0x165f build/default/production/mcc_generated_files/application_manager.o
 .debug_loc     0x00000000000115a1      0x5a4 build/default/production/mcc_generated_files/led.o
 .debug_loc     0x0000000000011b45      0x15e build/default/production/mcc_generated_files/delay.o
 .debug_loc     0x0000000000011ca3      0x172 build/default/production/mcc_generated_files/mcc.o
 .debug_loc     0x0000000000011e15       0x1e build/default/production/mcc_generated_files/CryptoAuth_init.o
 .debug_loc     0x0000000000011e33      0x13f build/default/production/mcc_generated_files/time_service.o

.debug_macinfo
 *(.debug_macinfo)

.debug_weaknames
 *(.debug_weaknames)

.debug_funcnames
 *(.debug_funcnames)

.debug_typenames
 *(.debug_typenames)

.debug_varnames
 *(.debug_varnames)

.debug_pubtypes
 *(.debug_pubtypes)

.debug_ranges   0x0000000000000000     0x1950
 *(.debug_ranges)
 .debug_ranges  0x0000000000000000       0x98 build/default/production/mcc_generated_files/cli/cli.o
 .debug_ranges  0x0000000000000098       0x60 build/default/production/mcc_generated_files/cloud/crypto_client/crypto_client.o
 .debug_ranges  0x00000000000000f8       0x88 build/default/production/mcc_generated_files/cloud/cloud_service.o
 .debug_ranges  0x0000000000000180       0x68 build/default/production/mcc_generated_files/cloud/wifi_service.o
 .debug_ranges  0x00000000000001e8       0x40 build/default/production/mcc_generated_files/cloud/mqtt_service.o
 .debug_ranges  0x0000000000000228       0x50 build/default/production/mcc_generated_files/cloud/aws_cloud_service.o
 .debug_ranges  0x0000000000000278       0x10 build/default/production/mcc_generated_files/credentials_storage/credentials_storage.o
 .debug_ranges  0x0000000000000288       0x20 build/default/production/mcc_generated_files/CryptoAuthenticationLibrary/basic/atca_basic_sign.o
 .debug_ranges  0x00000000000002a8       0x70 build/default/production/mcc_generated_files/CryptoAuthenticationLibrary/basic/atca_basic.o
 .debug_ranges  0x0000000000000318       0x38 build/default/production/mcc_generated_files/CryptoAuthenticationLibrary/basic/atca_basic_lock.o
 .debug_ranges  0x0000000000000350       0x38 build/default/production/mcc_generated_files/CryptoAuthenticationLibrary/basic/atca_basic_ecdh.o
 .debug_ranges  0x0000000000000388       0x48 build/default/production/mcc_generated_files/CryptoAuthenticationLibrary/basic/atca_basic_verify.o
 .debug_ranges  0x00000000000003d0       0x20 build/default/production/mcc_generated_files/CryptoAuthenticationLibrary/basic/atca_basic_genkey.o
 .debug_ranges  0x00000000000003f0       0x38 build/default/production/mcc_generated_files/CryptoAuthenticationLibrary/basic/atca_basic_nonce.o
 .debug_ranges  0x0000000000000428       0x58 build/default/production/mcc_generated_files/CryptoAuthenticationLibrary/basic/atca_basic_read.o
 .debug_ranges  0x0000000000000480       0x10 build/default/production/mcc_generated_files/CryptoAuthenticationLibrary/basic/atca_basic_random.o
 .debug_ranges  0x0000000000000490       0x18 build/default/production/mcc_generated_files/CryptoAuthenticationLibrary/hal/hal_i2c_timer.o
 .debug_ranges  0x00000000000004a8       0x58 build/default/production/mcc_generated_files/CryptoAuthenticationLibrary/hal/atca_i2c_hal.o
 .debug_ranges  0x0000000000000500       0x20 build/default/production/mcc_generated_files/CryptoAuthenticationLibrary/hal/atca_hal.o
 .debug_ranges  0x0000000000000520      0x100 build/default/production/mcc_generated_files/CryptoAuthenticationLibrary/atca_command.o
 .debug_ranges  0x0000000000000620       0x28 build/default/production/mcc_generated_files/CryptoAuthenticationLibrary/atca_device.o
 .debug_ranges  0x0000000000000648       0x18 build/default/production/mcc_generated_files/CryptoAuthenticationLibrary/atca_execution.o
 .debug_ranges  0x0000000000000660       0x60 build/default/production/mcc_generated_files/CryptoAuthenticationLibrary/atca_iface.o
 .debug_ranges  0x00000000000006c0       0xd0 build/default/production/mcc_generated_files/drivers/timeout.o
 .debug_ranges  0x0000000000000790       0x18 build/default/production/mcc_generated_files/drivers/spi_master.o
 .debug_ranges  0x00000000000007a8       0x68 build/default/production/mcc_generated_files/drivers/i2c_simple_master.o
 .debug_ranges  0x0000000000000810       0x38 build/default/production/mcc_generated_files/mqtt/mqtt_comm_bsd/mqtt_comm_layer.o
 .debug_ranges  0x0000000000000848       0xb8 build/default/production/mcc_generated_files/mqtt/mqtt_core/mqtt_core.o
 .debug_ranges  0x0000000000000900       0x28 build/default/production/mcc_generated_files/mqtt/mqtt_exchange_buffer/mqtt_exchange_buffer.o
 .debug_ranges  0x0000000000000928       0xe8 build/default/production/mcc_generated_files/mqtt/mqtt_winc_adapter.o
 .debug_ranges  0x0000000000000a10       0x18 build/default/production/mcc_generated_files/mqtt/mqtt_packetTransfer_interface.o
 .debug_ranges  0x0000000000000a28      0x1e8 build/default/production/mcc_generated_files/src/twi0_master.o
 .debug_ranges  0x0000000000000c10       0x98 build/default/production/mcc_generated_files/src/adc0.o
 .debug_ranges  0x0000000000000ca8       0xb0 build/default/production/mcc_generated_files/src/usart2.o
 .debug_ranges  0x0000000000000d58       0x10 build/default/production/mcc_generated_files/src/cpuint.o
 .debug_ranges  0x0000000000000d68      0x180 build/default/production/mcc_generated_files/src/pin_manager.o
 .debug_ranges  0x0000000000000ee8       0x98 build/default/production/mcc_generated_files/src/rtc.o
 .debug_ranges  0x0000000000000f80       0x88 build/default/production/mcc_generated_files/src/spi0.o
 .debug_ranges  0x0000000000001008       0x58 build/default/production/mcc_generated_files/winc/driver/winc_asic.o
 .debug_ranges  0x0000000000001060       0x58 build/default/production/mcc_generated_files/winc/driver/winc_hif.o
 .debug_ranges  0x00000000000010b8       0x88 build/default/production/mcc_generated_files/winc/driver/winc_spi.o
 .debug_ranges  0x0000000000001140       0x78 build/default/production/mcc_generated_files/winc/driver/winc_adapter.o
 .debug_ranges  0x00000000000011b8       0x20 build/default/production/mcc_generated_files/winc/driver/winc_drv.o
 .debug_ranges  0x00000000000011d8       0x18 build/default/production/mcc_generated_files/winc/m2m/m2m_fwinfo.o
 .debug_ranges  0x00000000000011f0       0x70 build/default/production/mcc_generated_files/winc/m2m/m2m_ssl.o
 .debug_ranges  0x0000000000001260      0x298 build/default/production/mcc_generated_files/winc/m2m/m2m_wifi.o
 .debug_ranges  0x00000000000014f8      0x128 build/default/production/mcc_generated_files/winc/socket/socket.o
 .debug_ranges  0x0000000000001620       0x50 build/default/production/mcc_generated_files/winc/spi_flash/spi_flash.o
 .debug_ranges  0x0000000000001670       0x28 build/default/production/mcc_generated_files/debug_print.o
 .debug_ranges  0x0000000000001698      0x128 build/default/production/mcc_generated_files/application_manager.o
 .debug_ranges  0x00000000000017c0       0x58 build/default/production/mcc_generated_files/led.o
 .debug_ranges  0x0000000000001818       0x18 build/default/production/mcc_generated_files/delay.o
 .debug_ranges  0x0000000000001830       0x38 build/default/production/mcc_generated_files/mcc.o
 .debug_ranges  0x0000000000001868       0x10 build/default/production/mcc_generated_files/CryptoAuth_init.o
 .debug_ranges  0x0000000000001878       0x60 build/default/production/mcc_generated_files/time_service.o
 .debug_ranges  0x00000000000018d8       0x10 build/default/production/main.o
 .debug_ranges  0x00000000000018e8       0x68 build/default/production/mcc_generated_files/src/usart1.o

.debug_macro
 *(.debug_macro)
OUTPUT(dist/default/production/iot-health.X.production.elf elf32-avr)
LOAD linker stubs
LOAD data_init

.note.gnu.avr.deviceinfo
                0x0000000000000000       0x40
 .note.gnu.avr.deviceinfo
                0x0000000000000000       0x40 C:/Program Files/Microchip/MPLABX/v5.45/packs/Microchip/ATmega_DFP/2.2.108/xc8/avr/lib/avrxmega3/crtatmega4808.o

.bss.test.6174  0x0000000000803615        0x1
 .bss.test.6174
                0x0000000000803615        0x1 build/default/production/mcc_generated_files/cli/cli.o

.bss.ateccsn    0x00000000008035d7        0x2
 .bss.ateccsn   0x00000000008035d7        0x2 build/default/production/mcc_generated_files/cli/cli.o

.bss.commandTooLongFlag
                0x0000000000803616        0x1
 .bss.commandTooLongFlag
                0x0000000000803616        0x1 build/default/production/mcc_generated_files/cli/cli.o

.bss.index      0x0000000000803617        0x1
 .bss.index     0x0000000000803617        0x1 build/default/production/mcc_generated_files/cli/cli.o

.bss.command    0x000000000080320b       0x64
 .bss.command   0x000000000080320b       0x64 build/default/production/mcc_generated_files/cli/cli.o

.bss.g_ecdh_key_slot_index
                0x00000000008035a3        0x4
 .bss.g_ecdh_key_slot_index
                0x00000000008035a3        0x4 build/default/production/mcc_generated_files/cloud/crypto_client/crypto_client.o

.bss.subscriptionTopicCount.5368
                0x0000000000803618        0x1
 .bss.subscriptionTopicCount.5368
                0x0000000000803618        0x1 build/default/production/mcc_generated_files/cloud/cloud_service.o

.bss.wifiConnectionStateChangedCallback
                0x00000000008035d9        0x2
 .bss.wifiConnectionStateChangedCallback
                0x00000000008035d9        0x2 build/default/production/mcc_generated_files/cloud/wifi_service.o
                0x00000000008035d9                wifiConnectionStateChangedCallback

.bss.responseFromProvisionConnect
                0x0000000000803619        0x1
 .bss.responseFromProvisionConnect
                0x0000000000803619        0x1 build/default/production/mcc_generated_files/cloud/wifi_service.o

.bss.publishRecvInfo
                0x00000000008035db        0x2
 .bss.publishRecvInfo
                0x00000000008035db        0x2 build/default/production/mcc_generated_files/cloud/mqtt_service.o

.bss._gDevice   0x00000000008035dd        0x2
 .bss._gDevice  0x00000000008035dd        0x2 build/default/production/mcc_generated_files/CryptoAuthenticationLibrary/basic/atca_basic.o
                0x00000000008035dd                _gDevice

.bss.i2c_address
                0x000000000080361a        0x1
 .bss.i2c_address
                0x000000000080361a        0x1 build/default/production/mcc_generated_files/CryptoAuthenticationLibrary/hal/atca_i2c_hal.o
                0x000000000080361a                i2c_address

.bss.isRunning  0x000000000080361b        0x1
 .bss.isRunning
                0x000000000080361b        0x1 build/default/production/mcc_generated_files/drivers/timeout.o
                0x000000000080361b                isRunning

.bss.lastTimerLoad
                0x00000000008035ab        0x4
 .bss.lastTimerLoad
                0x00000000008035ab        0x4 build/default/production/mcc_generated_files/drivers/timeout.o
                0x00000000008035ab                lastTimerLoad

.bss.absoluteTimeofLastTimeout
                0x00000000008035af        0x4
 .bss.absoluteTimeofLastTimeout
                0x00000000008035af        0x4 build/default/production/mcc_generated_files/drivers/timeout.o
                0x00000000008035af                absoluteTimeofLastTimeout

.bss.executeQueueHead
                0x00000000008035df        0x2
 .bss.executeQueueHead
                0x00000000008035df        0x2 build/default/production/mcc_generated_files/drivers/timeout.o
                0x00000000008035df                executeQueueHead

.bss.listHead   0x00000000008035e1        0x2
 .bss.listHead  0x00000000008035e1        0x2 build/default/production/mcc_generated_files/drivers/timeout.o
                0x00000000008035e1                listHead

.bss.lastSentSize
                0x00000000008035e3        0x2
 .bss.lastSentSize
                0x00000000008035e3        0x2 build/default/production/mcc_generated_files/mqtt/mqtt_comm_bsd/mqtt_comm_layer.o

.bss.mqttRxBuff
                0x0000000000802daa      0x190
 .bss.mqttRxBuff
                0x0000000000802daa      0x190 build/default/production/mcc_generated_files/mqtt/mqtt_comm_bsd/mqtt_comm_layer.o

.bss.mqttTxBuff
                0x0000000000802f3a      0x190
 .bss.mqttTxBuff
                0x0000000000802f3a      0x190 build/default/production/mcc_generated_files/mqtt/mqtt_comm_bsd/mqtt_comm_layer.o

.bss.mqttConn   0x000000000080343e       0x12
 .bss.mqttConn  0x000000000080343e       0x12 build/default/production/mcc_generated_files/mqtt/mqtt_comm_bsd/mqtt_comm_layer.o

.bss.mqttState  0x000000000080361d        0x1
 .bss.mqttState
                0x000000000080361d        0x1 build/default/production/mcc_generated_files/mqtt/mqtt_core/mqtt_core.o

.bss.lastReceivedLength
                0x00000000008035e5        0x2
 .bss.lastReceivedLength
                0x00000000008035e5        0x2 build/default/production/mcc_generated_files/mqtt/mqtt_core/mqtt_core.o

.bss.lastReceivedPacketHeader
                0x000000000080361e        0x1
 .bss.lastReceivedPacketHeader
                0x000000000080361e        0x1 build/default/production/mcc_generated_files/mqtt/mqtt_core/mqtt_core.o

.bss.lastMQTTHandlerState
                0x000000000080361f        0x1
 .bss.lastMQTTHandlerState
                0x000000000080361f        0x1 build/default/production/mcc_generated_files/mqtt/mqtt_core/mqtt_core.o

.bss.mqttTimeouts
                0x0000000000803620        0x1
 .bss.mqttTimeouts
                0x0000000000803620        0x1 build/default/production/mcc_generated_files/mqtt/mqtt_core/mqtt_core.o

.bss.txUnsubscribePacket
                0x000000000080348c        0xd
 .bss.txUnsubscribePacket
                0x000000000080348c        0xd build/default/production/mcc_generated_files/mqtt/mqtt_core/mqtt_core.o

.bss.txSubscribePacket
                0x0000000000803470        0xe
 .bss.txSubscribePacket
                0x0000000000803470        0xe build/default/production/mcc_generated_files/mqtt/mqtt_core/mqtt_core.o

.bss.txPublishPacket
                0x0000000000803460       0x10
 .bss.txPublishPacket
                0x0000000000803460       0x10 build/default/production/mcc_generated_files/mqtt/mqtt_core/mqtt_core.o

.bss.txConnectPacket
                0x00000000008033b4       0x1d
 .bss.txConnectPacket
                0x00000000008033b4       0x1d build/default/production/mcc_generated_files/mqtt/mqtt_core/mqtt_core.o

.bss.mqttRxFlags
                0x0000000000803621        0x1
 .bss.mqttRxFlags
                0x0000000000803621        0x1 build/default/production/mcc_generated_files/mqtt/mqtt_core/mqtt_core.o

.bss.mqttTxFlags
                0x0000000000803622        0x1
 .bss.mqttTxFlags
                0x0000000000803622        0x1 build/default/production/mcc_generated_files/mqtt/mqtt_core/mqtt_core.o

.bss.packetRecvInfo
                0x00000000008035e7        0x2
 .bss.packetRecvInfo
                0x00000000008035e7        0x2 build/default/production/mcc_generated_files/mqtt/mqtt_winc_adapter.o

.bss.bsdErrorNumber
                0x0000000000803623        0x1
 .bss.bsdErrorNumber
                0x0000000000803623        0x1 build/default/production/mcc_generated_files/mqtt/mqtt_winc_adapter.o

.bss.I2C0_status
                0x0000000000803390       0x24
 .bss.I2C0_status
                0x0000000000803390       0x24 build/default/production/mcc_generated_files/src/twi0_master.o
                0x0000000000803390                I2C0_status

.bss.ADC0_window_cb
                0x00000000008035e9        0x2
 .bss.ADC0_window_cb
                0x00000000008035e9        0x2 build/default/production/mcc_generated_files/src/adc0.o
                0x00000000008035e9                ADC0_window_cb

.bss.USART2_tx_elements
                0x0000000000803624        0x1
 .bss.USART2_tx_elements
                0x0000000000803624        0x1 build/default/production/mcc_generated_files/src/usart2.o

.bss.USART2_tx_tail
                0x0000000000803625        0x1
 .bss.USART2_tx_tail
                0x0000000000803625        0x1 build/default/production/mcc_generated_files/src/usart2.o

.bss.USART2_tx_head
                0x0000000000803626        0x1
 .bss.USART2_tx_head
                0x0000000000803626        0x1 build/default/production/mcc_generated_files/src/usart2.o

.bss.USART2_txbuf
                0x00000000008032bf       0x40
 .bss.USART2_txbuf
                0x00000000008032bf       0x40 build/default/production/mcc_generated_files/src/usart2.o

.bss.USART2_rx_elements
                0x0000000000803627        0x1
 .bss.USART2_rx_elements
                0x0000000000803627        0x1 build/default/production/mcc_generated_files/src/usart2.o

.bss.USART2_rx_tail
                0x0000000000803628        0x1
 .bss.USART2_rx_tail
                0x0000000000803628        0x1 build/default/production/mcc_generated_files/src/usart2.o

.bss.USART2_rx_head
                0x0000000000803629        0x1
 .bss.USART2_rx_head
                0x0000000000803629        0x1 build/default/production/mcc_generated_files/src/usart2.o

.bss.USART2_rxbuf
                0x00000000008032ff       0x40
 .bss.USART2_rxbuf
                0x00000000008032ff       0x40 build/default/production/mcc_generated_files/src/usart2.o

.bss.PORTF_WAKE_InterruptHandler
                0x00000000008035ef        0x2
 .bss.PORTF_WAKE_InterruptHandler
                0x00000000008035ef        0x2 build/default/production/mcc_generated_files/src/pin_manager.o

.bss.PORTF_SW1_InterruptHandler
                0x00000000008035f1        0x2
 .bss.PORTF_SW1_InterruptHandler
                0x00000000008035f1        0x2 build/default/production/mcc_generated_files/src/pin_manager.o

.bss.PORTF_INT_InterruptHandler
                0x00000000008035f3        0x2
 .bss.PORTF_INT_InterruptHandler
                0x00000000008035f3        0x2 build/default/production/mcc_generated_files/src/pin_manager.o

.bss.PORTF_PF3_InterruptHandler
                0x00000000008035f5        0x2
 .bss.PORTF_PF3_InterruptHandler
                0x00000000008035f5        0x2 build/default/production/mcc_generated_files/src/pin_manager.o

.bss.PORTF_PF0_InterruptHandler
                0x00000000008035f7        0x2
 .bss.PORTF_PF0_InterruptHandler
                0x00000000008035f7        0x2 build/default/production/mcc_generated_files/src/pin_manager.o

.bss.PORTF_PF1_InterruptHandler
                0x00000000008035f9        0x2
 .bss.PORTF_PF1_InterruptHandler
                0x00000000008035f9        0x2 build/default/production/mcc_generated_files/src/pin_manager.o

.bss.PORTF_SW0_InterruptHandler
                0x00000000008035fb        0x2
 .bss.PORTF_SW0_InterruptHandler
                0x00000000008035fb        0x2 build/default/production/mcc_generated_files/src/pin_manager.o

.bss.RTC_PIT_isr_cb
                0x00000000008035fd        0x2
 .bss.RTC_PIT_isr_cb
                0x00000000008035fd        0x2 build/default/production/mcc_generated_files/src/rtc.o
                0x00000000008035fd                RTC_PIT_isr_cb

.bss.RTC_CMP_isr_cb
                0x00000000008035ff        0x2
 .bss.RTC_CMP_isr_cb
                0x00000000008035ff        0x2 build/default/production/mcc_generated_files/src/rtc.o
                0x00000000008035ff                RTC_CMP_isr_cb

.bss.RTC_OVF_isr_cb
                0x0000000000803601        0x2
 .bss.RTC_OVF_isr_cb
                0x0000000000803601        0x2 build/default/production/mcc_generated_files/src/rtc.o
                0x0000000000803601                RTC_OVF_isr_cb

.bss.spi0_desc  0x000000000080362a        0x1
 .bss.spi0_desc
                0x000000000080362a        0x1 build/default/production/mcc_generated_files/src/spi0.o

.bss.gu32ChipID.3387
                0x00000000008035b7        0x4
 .bss.gu32ChipID.3387
                0x00000000008035b7        0x4 build/default/production/mcc_generated_files/winc/driver/winc_asic.o

.bss.gbChipPwrSave
                0x000000000080362b        0x1
 .bss.gbChipPwrSave
                0x000000000080362b        0x1 build/default/production/mcc_generated_files/winc/driver/winc_hif.o

.bss.gu16RxSize
                0x0000000000803603        0x2
 .bss.gu16RxSize
                0x0000000000803603        0x2 build/default/production/mcc_generated_files/winc/driver/winc_hif.o

.bss.gu32RxAddr
                0x00000000008035bb        0x4
 .bss.gu32RxAddr
                0x00000000008035bb        0x4 build/default/production/mcc_generated_files/winc/driver/winc_hif.o

.bss.gu8ChipSleep
                0x000000000080362c        0x1
 .bss.gu8ChipSleep
                0x000000000080362c        0x1 build/default/production/mcc_generated_files/winc/driver/winc_hif.o

.bss.serviceRequest
                0x000000000080362e        0x1
 .bss.serviceRequest
                0x000000000080362e        0x1 build/default/production/mcc_generated_files/winc/driver/winc_adapter.o

.bss.gu32HIFAddr
                0x00000000008035bf        0x4
 .bss.gu32HIFAddr
                0x00000000008035bf        0x4 build/default/production/mcc_generated_files/winc/m2m/m2m_ssl.o

.bss.gpfAppSSLCb
                0x0000000000803605        0x2
 .bss.gpfAppSSLCb
                0x0000000000803605        0x2 build/default/production/mcc_generated_files/winc/m2m/m2m_ssl.o

.bss.gu8scanInProgress
                0x0000000000803630        0x1
 .bss.gu8scanInProgress
                0x0000000000803630        0x1 build/default/production/mcc_generated_files/winc/m2m/m2m_wifi.o

.bss.gpfAppWifiCb
                0x0000000000803607        0x2
 .bss.gpfAppWifiCb
                0x0000000000803607        0x2 build/default/production/mcc_generated_files/winc/m2m/m2m_wifi.o

.bss.gu8WifiState
                0x0000000000803631        0x1
 .bss.gu8WifiState
                0x0000000000803631        0x1 build/default/production/mcc_generated_files/winc/m2m/m2m_wifi.o

.bss.gu8ChNum   0x0000000000803632        0x1
 .bss.gu8ChNum  0x0000000000803632        0x1 build/default/production/mcc_generated_files/winc/m2m/m2m_wifi.o

.bss.u8NextUdpSock.3542
                0x0000000000803633        0x1
 .bss.u8NextUdpSock.3542
                0x0000000000803633        0x1 build/default/production/mcc_generated_files/winc/socket/socket.o

.bss.u8NextTcpSock.3541
                0x0000000000803634        0x1
 .bss.u8NextTcpSock.3541
                0x0000000000803634        0x1 build/default/production/mcc_generated_files/winc/socket/socket.o

.bss.gu32PingId
                0x00000000008035c3        0x4
 .bss.gu32PingId
                0x00000000008035c3        0x4 build/default/production/mcc_generated_files/winc/socket/socket.o

.bss.gfpPingCb  0x0000000000803609        0x2
 .bss.gfpPingCb
                0x0000000000803609        0x2 build/default/production/mcc_generated_files/winc/socket/socket.o

.bss.gbSocketInit
                0x0000000000803635        0x1
 .bss.gbSocketInit
                0x0000000000803635        0x1 build/default/production/mcc_generated_files/winc/socket/socket.o

.bss.gpfAppResolveCb
                0x000000000080360b        0x2
 .bss.gpfAppResolveCb
                0x000000000080360b        0x2 build/default/production/mcc_generated_files/winc/socket/socket.o

.bss.gpfAppSocketCb
                0x000000000080360d        0x2
 .bss.gpfAppSocketCb
                0x000000000080360d        0x2 build/default/production/mcc_generated_files/winc/socket/socket.o

.bss.gu16SessionID
                0x000000000080360f        0x2
 .bss.gu16SessionID
                0x000000000080360f        0x2 build/default/production/mcc_generated_files/winc/socket/socket.o

.bss.gastrSockets
                0x0000000000803192       0x79
 .bss.gastrSockets
                0x0000000000803192       0x79 build/default/production/mcc_generated_files/winc/socket/socket.o

.bss.debug_severity_filter
                0x0000000000803636        0x1
 .bss.debug_severity_filter
                0x0000000000803636        0x1 build/default/production/mcc_generated_files/debug_print.o

.bss.previousTransmissionTime.7073
                0x00000000008035c7        0x4
 .bss.previousTransmissionTime.7073
                0x00000000008035c7        0x4 build/default/production/mcc_generated_files/application_manager.o

.bss.previousTime.7056
                0x00000000008035cb        0x4
 .bss.previousTime.7056
                0x00000000008035cb        0x4 build/default/production/mcc_generated_files/application_manager.o

.bss.payload.7061
                0x00000000008030ca       0xc8
 .bss.payload.7061
                0x00000000008030ca       0xc8 build/default/production/mcc_generated_files/application_manager.o

.bss.topic.7062
                0x000000000080326f       0x50
 .bss.topic.7062
                0x000000000080326f       0x50 build/default/production/mcc_generated_files/application_manager.o

.bss.toggleState
                0x0000000000803637        0x1
 .bss.toggleState
                0x0000000000803637        0x1 build/default/production/mcc_generated_files/application_manager.o

.bss.offTimerRed
                0x000000000080352f        0xa
 .bss.offTimerRed
                0x000000000080352f        0xa build/default/production/mcc_generated_files/led.o

.bss.onTimerRed
                0x0000000000803539        0xa
 .bss.onTimerRed
                0x0000000000803539        0xa build/default/production/mcc_generated_files/led.o

.bss.offTimerYellow
                0x0000000000803543        0xa
 .bss.offTimerYellow
                0x0000000000803543        0xa build/default/production/mcc_generated_files/led.o

.bss.onTimerYellow
                0x000000000080354d        0xa
 .bss.onTimerYellow
                0x000000000080354d        0xa build/default/production/mcc_generated_files/led.o

.bss.offTimerGreen
                0x0000000000803557        0xa
 .bss.offTimerGreen
                0x0000000000803557        0xa build/default/production/mcc_generated_files/led.o

.bss.onTimerGreen
                0x0000000000803561        0xa
 .bss.onTimerGreen
                0x0000000000803561        0xa build/default/production/mcc_generated_files/led.o

.bss.offTimerBlue
                0x000000000080356b        0xa
 .bss.offTimerBlue
                0x000000000080356b        0xa build/default/production/mcc_generated_files/led.o

.bss.onTimerBlue
                0x0000000000803575        0xa
 .bss.onTimerBlue
                0x0000000000803575        0xa build/default/production/mcc_generated_files/led.o

.bss.stampTime  0x00000000008035cf        0x4
 .bss.stampTime
                0x00000000008035cf        0x4 build/default/production/mcc_generated_files/time_service.o

.bss.currentTime
                0x00000000008035d3        0x4
 .bss.currentTime
                0x00000000008035d3        0x4 build/default/production/mcc_generated_files/time_service.o

.bss            0x0000000000803611        0x2
 .bss           0x0000000000803611        0x2 c:/program files/microchip/xc8/v2.31/avr/bin/../lib/gcc/avr/5.4.0/../../../../avr/lib/avrxmega3\libc.a(strtok.o)

.progmemx.data  0x0000000000000186       0x3b
 .progmemx.data
                0x0000000000000186       0x3b c:/program files/microchip/xc8/v2.31/avr/bin/../lib/gcc/avr/5.4.0/../../../../avr/lib/avrxmega3\libc.a(asctime_r.o)
                0x0000000000000186                ascdays
                0x000000000000019c                ascmonths

.data.mqqtSocket
                0x000000000080361c        0x1 load address 0x00000000000001c1
 .data.mqqtSocket
                0x000000000080361c        0x1 build/default/production/mcc_generated_files/mqtt/mqtt_comm_bsd/mqtt_comm_layer.o

.text.MQTT_TransmissionHandler
                0x00000000000001c2      0x560
 .text.MQTT_TransmissionHandler
                0x00000000000001c2      0x560 build/default/production/mcc_generated_files/mqtt/mqtt_core/mqtt_core.o
                0x00000000000001c2                MQTT_TransmissionHandler

.text.m2m_ip_cb
                0x0000000000000722      0x510
 .text.m2m_ip_cb
                0x0000000000000722      0x510 build/default/production/mcc_generated_files/winc/socket/socket.o
                0x0000000000000722                m2m_ip_cb

.text.cloudTask
                0x0000000000000c32      0x44e
 .text.cloudTask
                0x0000000000000c32      0x44e build/default/production/mcc_generated_files/cloud/cloud_service.o
                0x0000000000000c32                cloudTask

.text.application_init
                0x0000000000001080      0x402
 .text.application_init
                0x0000000000001080      0x402 build/default/production/mcc_generated_files/application_manager.o
                0x0000000000001080                application_init

.text.MQTT_ReceptionHandler
                0x0000000000001482      0x3ec
 .text.MQTT_ReceptionHandler
                0x0000000000001482      0x3ec build/default/production/mcc_generated_files/mqtt/mqtt_core/mqtt_core.o
                0x0000000000001482                MQTT_ReceptionHandler

.text.avrlibc   0x000000000000186e      0x3c2
 .text.avrlibc  0x000000000000186e      0x3c2 c:/program files/microchip/xc8/v2.31/avr/bin/../lib/gcc/avr/5.4.0/../../../../avr/lib/avrxmega3\libc.a(vfprintf_std.o)
                0x000000000000186e                vfprintf

.rodata         0x0000000000805c30      0x3a6 load address 0x0000000000001c30
 .rodata        0x0000000000805c30      0x3a6 build/default/production/mcc_generated_files/cloud/wifi_service.o

.rodata.OledFont
                0x0000000000805fd6      0x300 load address 0x0000000000001fd6
 .rodata.OledFont
                0x0000000000805fd6      0x300 build/default/production/mcc_generated_files/application_manager.o
                0x0000000000805fd6                OledFont

.rodata         0x00000000008062d6      0x2f3 load address 0x00000000000022d6
 .rodata        0x00000000008062d6      0x2f3 build/default/production/mcc_generated_files/cloud/cloud_service.o

.data.bSPIBusError
                0x000000000080362d        0x1 load address 0x00000000000025c9
 .data.bSPIBusError
                0x000000000080362d        0x1 build/default/production/mcc_generated_files/winc/driver/winc_spi.o

.text.wifiCallback
                0x00000000000025ca      0x2d2
 .text.wifiCallback
                0x00000000000025ca      0x2d2 build/default/production/mcc_generated_files/cloud/wifi_service.o

.text.m2m_ssl_retrieve_cert
                0x000000000000289c      0x272
 .text.m2m_ssl_retrieve_cert
                0x000000000000289c      0x272 build/default/production/mcc_generated_files/winc/m2m/m2m_ssl.o
                0x000000000000289c                m2m_ssl_retrieve_cert

.text.winc_chip_init
                0x0000000000002b0e      0x224
 .text.winc_chip_init
                0x0000000000002b0e      0x224 build/default/production/mcc_generated_files/winc/driver/winc_asic.o
                0x0000000000002b0e                winc_chip_init

.text.set_wifi_auth
                0x0000000000002d32      0x206
 .text.set_wifi_auth
                0x0000000000002d32      0x206 build/default/production/mcc_generated_files/cli/cli.o

.rodata         0x0000000000806f38      0x205 load address 0x0000000000002f38
 .rodata        0x0000000000806f38      0x205 build/default/production/mcc_generated_files/cli/cli.o

.data.genuStatus
                0x000000000080362f        0x1 load address 0x000000000000313d
 .data.genuStatus
                0x000000000080362f        0x1 build/default/production/mcc_generated_files/winc/m2m/m2m_ssl.o

.text.LED_control
                0x000000000000313e      0x1f8
 .text.LED_control
                0x000000000000313e      0x1f8 build/default/production/mcc_generated_files/led.o
                0x000000000000313e                LED_control

.rodata         0x0000000000807336      0x1e9 load address 0x0000000000003336
 .rodata        0x0000000000807336      0x1e9 build/default/production/mcc_generated_files/application_manager.o

.text.winc_hif_send
                0x0000000000003520      0x1e6
 .text.winc_hif_send
                0x0000000000003520      0x1e6 build/default/production/mcc_generated_files/winc/driver/winc_hif.o
                0x0000000000003520                winc_hif_send

.text.sortedInsert
                0x0000000000003706      0x1e2
 .text.sortedInsert
                0x0000000000003706      0x1e2 build/default/production/mcc_generated_files/drivers/timeout.o
                0x0000000000003706                sortedInsert

.text.mqttProcessPublish
                0x00000000000038e8      0x1d2
 .text.mqttProcessPublish
                0x00000000000038e8      0x1d2 build/default/production/mcc_generated_files/mqtt/mqtt_core/mqtt_core.o

.text.atcab_read_bytes_zone
                0x0000000000003aba      0x1b8
 .text.atcab_read_bytes_zone
                0x0000000000003aba      0x1b8 build/default/production/mcc_generated_files/CryptoAuthenticationLibrary/basic/atca_basic_read.o
                0x0000000000003aba                atcab_read_bytes_zone

.text.CLI_task  0x0000000000003c72      0x1b2
 .text.CLI_task
                0x0000000000003c72      0x1b2 build/default/production/mcc_generated_files/cli/cli.o
                0x0000000000003c72                CLI_task

.text.CLOUD_connectSocket
                0x0000000000003e24      0x1a6
 .text.CLOUD_connectSocket
                0x0000000000003e24      0x1a6 build/default/production/mcc_generated_files/cloud/aws_cloud_service.o
                0x0000000000003e24                CLOUD_connectSocket

.text.socket    0x0000000000003fca      0x19c
 .text.socket   0x0000000000003fca      0x19c build/default/production/mcc_generated_files/winc/socket/socket.o
                0x0000000000003fca                socket

.text           0x0000000000004166      0x18e
 .text          0x0000000000004166      0x18e c:/program files/microchip/xc8/v2.31/avr/bin/../lib/gcc/avr/5.4.0/../../../../avr/lib/avrxmega3\libc.a(gmtime_r.o)
                0x0000000000004166                gmtime_r

.text.m2m_ssl_cb
                0x00000000000042f4      0x180
 .text.m2m_ssl_cb
                0x00000000000042f4      0x180 build/default/production/mcc_generated_files/winc/m2m/m2m_ssl.o
                0x00000000000042f4                m2m_ssl_cb

.text.winc_hif_handle_isr
                0x0000000000004474      0x16c
 .text.winc_hif_handle_isr
                0x0000000000004474      0x16c build/default/production/mcc_generated_files/winc/driver/winc_hif.o
                0x0000000000004474                winc_hif_handle_isr

.text.CRYPTO_CLIENT_processEccRequest
                0x00000000000045e0      0x15e
 .text.CRYPTO_CLIENT_processEccRequest
                0x00000000000045e0      0x15e build/default/production/mcc_generated_files/cloud/crypto_client/crypto_client.o
                0x00000000000045e0                CRYPTO_CLIENT_processEccRequest

.text.MAIN_dataTask
                0x000000000000473e      0x15a
 .text.MAIN_dataTask
                0x000000000000473e      0x15a build/default/production/mcc_generated_files/application_manager.o
                0x000000000000473e                MAIN_dataTask

.text.spi_flash_read_internal
                0x0000000000004898      0x156
 .text.spi_flash_read_internal
                0x0000000000004898      0x156 build/default/production/mcc_generated_files/winc/spi_flash/spi_flash.o

.text           0x00000000000049ee      0x156
 .text          0x00000000000049ee      0x156 c:/program files/microchip/xc8/v2.31/avr/bin/../lib/gcc/avr/5.4.0/../../../../avr/lib/avrxmega3\libc.a(mk_gmtime.o)
                0x00000000000049ee                mk_gmtime

.text.PIN_MANAGER_Initialize
                0x0000000000004b44      0x154
 .text.PIN_MANAGER_Initialize
                0x0000000000004b44      0x154 build/default/production/mcc_generated_files/src/pin_manager.o
                0x0000000000004b44                PIN_MANAGER_Initialize

.text.ecdsa_process_sign_verify_request
                0x0000000000004c98      0x14e
 .text.ecdsa_process_sign_verify_request
                0x0000000000004c98      0x14e build/default/production/mcc_generated_files/cloud/crypto_client/crypto_client.o
                0x0000000000004c98                ecdsa_process_sign_verify_request

.text.cloudResetTask
                0x0000000000004de6      0x142
 .text.cloudResetTask
                0x0000000000004de6      0x142 build/default/production/mcc_generated_files/cloud/cloud_service.o
                0x0000000000004de6                cloudResetTask

.text.atcab_verify
                0x0000000000004f28      0x138
 .text.atcab_verify
                0x0000000000004f28      0x138 build/default/production/mcc_generated_files/CryptoAuthenticationLibrary/basic/atca_basic_verify.o
                0x0000000000004f28                atcab_verify

.text.winc_chip_get_id
                0x0000000000005060      0x138
 .text.winc_chip_get_id
                0x0000000000005060      0x138 build/default/production/mcc_generated_files/winc/driver/winc_asic.o
                0x0000000000005060                winc_chip_get_id

.text.m2m_wifi_cb
                0x0000000000005198      0x134
 .text.m2m_wifi_cb
                0x0000000000005198      0x134 build/default/production/mcc_generated_files/winc/m2m/m2m_wifi.o
                0x0000000000005198                m2m_wifi_cb

.text.winc_bus_write_block
                0x00000000000052cc      0x11c
 .text.winc_bus_write_block
                0x00000000000052cc      0x11c build/default/production/mcc_generated_files/winc/driver/winc_spi.o
                0x00000000000052cc                winc_bus_write_block

.text.MQTT_CreateConnectPacket
                0x00000000000053e8      0x116
 .text.MQTT_CreateConnectPacket
                0x00000000000053e8      0x116 build/default/production/mcc_generated_files/mqtt/mqtt_core/mqtt_core.o
                0x00000000000053e8                MQTT_CreateConnectPacket

.text.m2m_wifi_connect_sc
                0x00000000000054fe      0x10c
 .text.m2m_wifi_connect_sc
                0x00000000000054fe      0x10c build/default/production/mcc_generated_files/winc/m2m/m2m_wifi.o
                0x00000000000054fe                m2m_wifi_connect_sc

.text.recv      0x000000000000560a      0x10c
 .text.recv     0x000000000000560a      0x10c build/default/production/mcc_generated_files/winc/socket/socket.o
                0x000000000000560a                recv

.text.receivedFromCloud
                0x0000000000005716      0x106
 .text.receivedFromCloud
                0x0000000000005716      0x106 build/default/production/mcc_generated_files/application_manager.o

.rodata         0x000000000080981c      0x104 load address 0x000000000000581c
 .rodata        0x000000000080981c      0x104 build/default/production/mcc_generated_files/cloud/aws_cloud_service.o

.text.send      0x0000000000005920      0x100
 .text.send     0x0000000000005920      0x100 build/default/production/mcc_generated_files/winc/socket/socket.o
                0x0000000000005920                send

.text.MQTT_CreatePublishPacket
                0x0000000000005a20       0xfc
 .text.MQTT_CreatePublishPacket
                0x0000000000005a20       0xfc build/default/production/mcc_generated_files/mqtt/mqtt_core/mqtt_core.o
                0x0000000000005a20                MQTT_CreatePublishPacket

.text.m2m_wifi_connect_psk
                0x0000000000005b1c       0xfc
 .text.m2m_wifi_connect_psk
                0x0000000000005b1c       0xfc build/default/production/mcc_generated_files/winc/m2m/m2m_wifi.o
                0x0000000000005b1c                m2m_wifi_connect_psk

.text           0x0000000000005c18       0xfc
 .text          0x0000000000005c18       0xfc c:/program files/microchip/xc8/v2.31/avr/bin/../lib/gcc/avr/5.4.0/../../../../avr/lib/avrxmega3\libc.a(asctime_r.o)
                0x0000000000005c18                asctime_r

.text.OLED_init
                0x0000000000005d14       0xfa
 .text.OLED_init
                0x0000000000005d14       0xfa build/default/production/mcc_generated_files/application_manager.o
                0x0000000000005d14                OLED_init

.text.atca_execute_command
                0x0000000000005e0e       0xf4
 .text.atca_execute_command
                0x0000000000005e0e       0xf4 build/default/production/mcc_generated_files/CryptoAuthenticationLibrary/atca_execution.o
                0x0000000000005e0e                atca_execute_command

.text.BSD_connect
                0x0000000000005f02       0xf4
 .text.BSD_connect
                0x0000000000005f02       0xf4 build/default/production/mcc_generated_files/mqtt/mqtt_winc_adapter.o
                0x0000000000005f02                BSD_connect

.text.m2m_wifi_connect_prepare_msg
                0x0000000000005ff6       0xf0
 .text.m2m_wifi_connect_prepare_msg
                0x0000000000005ff6       0xf0 build/default/production/mcc_generated_files/winc/m2m/m2m_wifi.o

.text.ecdh_derive_client_shared_secret
                0x00000000000060e6       0xea
 .text.ecdh_derive_client_shared_secret
                0x00000000000060e6       0xea build/default/production/mcc_generated_files/cloud/crypto_client/crypto_client.o
                0x00000000000060e6                ecdh_derive_client_shared_secret

.text.BSD_SocketHandler
                0x00000000000061d0       0xe8
 .text.BSD_SocketHandler
                0x00000000000061d0       0xe8 build/default/production/mcc_generated_files/mqtt/mqtt_winc_adapter.o
                0x00000000000061d0                BSD_SocketHandler

.text.atcab_read_zone
                0x00000000000062b8       0xde
 .text.atcab_read_zone
                0x00000000000062b8       0xde build/default/production/mcc_generated_files/CryptoAuthenticationLibrary/basic/atca_basic_read.o
                0x00000000000062b8                atcab_read_zone

.text.startTimerAtHead
                0x0000000000006396       0xd8
 .text.startTimerAtHead
                0x0000000000006396       0xd8 build/default/production/mcc_generated_files/drivers/timeout.o
                0x0000000000006396                startTimerAtHead

.text.atcab_nonce_base
                0x000000000000646e       0xd4
 .text.atcab_nonce_base
                0x000000000000646e       0xd4 build/default/production/mcc_generated_files/CryptoAuthenticationLibrary/basic/atca_basic_nonce.o
                0x000000000000646e                atcab_nonce_base

.rodata         0x000000000080a542       0xd3 load address 0x0000000000006542
 .rodata        0x000000000080a542       0xd3 build/default/production/mcc_generated_files/cloud/crypto_client/crypto_client.o

.text.atcab_get_zone_size
                0x0000000000006616       0xcc
 .text.atcab_get_zone_size
                0x0000000000006616       0xcc build/default/production/mcc_generated_files/CryptoAuthenticationLibrary/basic/atca_basic.o
                0x0000000000006616                atcab_get_zone_size

.text.wifi_readAWSEndpointFromWinc
                0x00000000000066e2       0xca
 .text.wifi_readAWSEndpointFromWinc
                0x00000000000066e2       0xca build/default/production/mcc_generated_files/cloud/wifi_service.o
                0x00000000000066e2                wifi_readAWSEndpointFromWinc

.text.wifi_readThingNameFromWinc
                0x00000000000067ac       0xc8
 .text.wifi_readThingNameFromWinc
                0x00000000000067ac       0xc8 build/default/production/mcc_generated_files/cloud/wifi_service.o
                0x00000000000067ac                wifi_readThingNameFromWinc

.text.m2m_validate_ap_parameters
                0x0000000000006874       0xc0
 .text.m2m_validate_ap_parameters
                0x0000000000006874       0xc0 build/default/production/mcc_generated_files/winc/m2m/m2m_wifi.o

.text.m2m_wifi_connect_wep
                0x0000000000006934       0xbe
 .text.m2m_wifi_connect_wep
                0x0000000000006934       0xbe build/default/production/mcc_generated_files/winc/m2m/m2m_wifi.o
                0x0000000000006934                m2m_wifi_connect_wep

.rodata         0x000000000080a9f2       0xbd load address 0x00000000000069f2
 .rodata        0x000000000080a9f2       0xbd build/default/production/mcc_generated_files/debug_print.o

.text.m2m_fwinfo_get_firmware_info
                0x0000000000006ab0       0xbc
 .text.m2m_fwinfo_get_firmware_info
                0x0000000000006ab0       0xbc build/default/production/mcc_generated_files/winc/m2m/m2m_fwinfo.o
                0x0000000000006ab0                m2m_fwinfo_get_firmware_info

.text.avrlibc   0x0000000000006b6c       0xbc
 .text.avrlibc  0x0000000000006b6c       0xbc c:/program files/microchip/xc8/v2.31/avr/bin/../lib/gcc/avr/5.4.0/../../../../avr/lib/avrxmega3\libc.a(ultoa_invert.o)
                0x0000000000006b6c                __ultoa_invert

.text.connect   0x0000000000006c28       0xb8
 .text.connect  0x0000000000006c28       0xb8 build/default/production/mcc_generated_files/winc/socket/socket.o
                0x0000000000006c28                connect

.text.atcab_verify_extern
                0x0000000000006ce0       0xb6
 .text.atcab_verify_extern
                0x0000000000006ce0       0xb6 build/default/production/mcc_generated_files/CryptoAuthenticationLibrary/basic/atca_basic_verify.o
                0x0000000000006ce0                atcab_verify_extern

.text.timeout_create
                0x0000000000006d96       0xb4
 .text.timeout_create
                0x0000000000006d96       0xb4 build/default/production/mcc_generated_files/drivers/timeout.o
                0x0000000000006d96                timeout_create

.text.winc_bus_read_block
                0x0000000000006e4a       0xb4
 .text.winc_bus_read_block
                0x0000000000006e4a       0xb4 build/default/production/mcc_generated_files/winc/driver/winc_spi.o
                0x0000000000006e4a                winc_bus_read_block

.text.atGetExecTime
                0x0000000000006efe       0xb2
 .text.atGetExecTime
                0x0000000000006efe       0xb2 build/default/production/mcc_generated_files/CryptoAuthenticationLibrary/atca_execution.o
                0x0000000000006efe                atGetExecTime

.text.m2m_wifi_start_provision_mode_ext
                0x0000000000006fb0       0xb2
 .text.m2m_wifi_start_provision_mode_ext
                0x0000000000006fb0       0xb2 build/default/production/mcc_generated_files/winc/m2m/m2m_wifi.o
                0x0000000000006fb0                m2m_wifi_start_provision_mode_ext

.text.LED_test  0x0000000000007062       0xb2
 .text.LED_test
                0x0000000000007062       0xb2 build/default/production/mcc_generated_files/led.o
                0x0000000000007062                LED_test

.text           0x0000000000007114       0xae
 .text          0x0000000000007114       0xae c:/program files/microchip/xc8/v2.31/avr/bin/../lib/gcc/avr/5.4.0/../../../../avr/lib/avrxmega3\libc.a(mktime.o)
                0x0000000000007114                mktime

.text.atcab_ecdh_base
                0x00000000000071c2       0xac
 .text.atcab_ecdh_base
                0x00000000000071c2       0xac build/default/production/mcc_generated_files/CryptoAuthenticationLibrary/basic/atca_basic_ecdh.o
                0x00000000000071c2                atcab_ecdh_base

.text.__vector_29
                0x000000000000726e       0xaa
 .text.__vector_29
                0x000000000000726e       0xaa build/default/production/mcc_generated_files/src/pin_manager.o
                0x000000000000726e                __vector_29

.text.winc_adapter_spi_write
                0x0000000000007318       0xa6
 .text.winc_adapter_spi_write
                0x0000000000007318       0xa6 build/default/production/mcc_generated_files/winc/driver/winc_adapter.o
                0x0000000000007318                winc_adapter_spi_write

.text.winc_adapter_spi_read
                0x00000000000073be       0xa6
 .text.winc_adapter_spi_read
                0x00000000000073be       0xa6 build/default/production/mcc_generated_files/winc/driver/winc_adapter.o
                0x00000000000073be                winc_adapter_spi_read

.text.ecdsa_process_sign_gen_request
                0x0000000000007464       0xa4
 .text.ecdsa_process_sign_gen_request
                0x0000000000007464       0xa4 build/default/production/mcc_generated_files/cloud/crypto_client/crypto_client.o
                0x0000000000007464                ecdsa_process_sign_gen_request

.text.enable_provision_ap
                0x0000000000007508       0xa2
 .text.enable_provision_ap
                0x0000000000007508       0xa2 build/default/production/mcc_generated_files/cloud/wifi_service.o
                0x0000000000007508                enable_provision_ap

.text.BSD_recv  0x00000000000075aa       0xa0
 .text.BSD_recv
                0x00000000000075aa       0xa0 build/default/production/mcc_generated_files/mqtt/mqtt_winc_adapter.o
                0x00000000000075aa                BSD_recv

.text.I2C0_DO_RX
                0x000000000000764a       0xa0
 .text.I2C0_DO_RX
                0x000000000000764a       0xa0 build/default/production/mcc_generated_files/src/twi0_master.o

.text.close     0x00000000000076ea       0x9c
 .text.close    0x00000000000076ea       0x9c build/default/production/mcc_generated_files/winc/socket/socket.o
                0x00000000000076ea                close

.text.BSD_send  0x0000000000007786       0x98
 .text.BSD_send
                0x0000000000007786       0x98 build/default/production/mcc_generated_files/mqtt/mqtt_winc_adapter.o
                0x0000000000007786                BSD_send

.text.timeout_deleteHelper
                0x000000000000781e       0x96
 .text.timeout_deleteHelper
                0x000000000000781e       0x96 build/default/production/mcc_generated_files/drivers/timeout.o
                0x000000000000781e                timeout_deleteHelper

.text.spi_read_reg
                0x00000000000078b4       0x96
 .text.spi_read_reg
                0x00000000000078b4       0x96 build/default/production/mcc_generated_files/winc/driver/winc_spi.o

.text.manageSubscriptionMessage
                0x000000000000794a       0x94
 .text.manageSubscriptionMessage
                0x000000000000794a       0x94 build/default/production/mcc_generated_files/cloud/mqtt_service.o

.text.atcab_genkey_base
                0x00000000000079de       0x92
 .text.atcab_genkey_base
                0x00000000000079de       0x92 build/default/production/mcc_generated_files/CryptoAuthenticationLibrary/basic/atca_basic_genkey.o
                0x00000000000079de                atcab_genkey_base

.text.winc_chip_wake
                0x0000000000007a70       0x92
 .text.winc_chip_wake
                0x0000000000007a70       0x92 build/default/production/mcc_generated_files/winc/driver/winc_asic.o
                0x0000000000007a70                winc_chip_wake

.text.winc_bus_clear_reg_bits
                0x0000000000007b02       0x92
 .text.winc_bus_clear_reg_bits
                0x0000000000007b02       0x92 build/default/production/mcc_generated_files/winc/driver/winc_spi.o
                0x0000000000007b02                winc_bus_clear_reg_bits

.text.atcab_init
                0x0000000000007b94       0x90
 .text.atcab_init
                0x0000000000007b94       0x90 build/default/production/mcc_generated_files/CryptoAuthenticationLibrary/basic/atca_basic.o
                0x0000000000007b94                atcab_init

.text.spi_flash_read
                0x0000000000007c24       0x8e
 .text.spi_flash_read
                0x0000000000007c24       0x8e build/default/production/mcc_generated_files/winc/spi_flash/spi_flash.o
                0x0000000000007c24                spi_flash_read

.text.MQTT_ExchangeBufferRead
                0x0000000000007cb2       0x8c
 .text.MQTT_ExchangeBufferRead
                0x0000000000007cb2       0x8c build/default/production/mcc_generated_files/mqtt/mqtt_exchange_buffer/mqtt_exchange_buffer.o
                0x0000000000007cb2                MQTT_ExchangeBufferRead

.text.reconnect_cmd
                0x0000000000007d3e       0x8a
 .text.reconnect_cmd
                0x0000000000007d3e       0x8a build/default/production/mcc_generated_files/cli/cli.o

.text.MQTT_ExchangeBufferPeek
                0x0000000000007dc8       0x8a
 .text.MQTT_ExchangeBufferPeek
                0x0000000000007dc8       0x8a build/default/production/mcc_generated_files/mqtt/mqtt_exchange_buffer/mqtt_exchange_buffer.o
                0x0000000000007dc8                MQTT_ExchangeBufferPeek

.text.timeout_isr
                0x0000000000007e52       0x88
 .text.timeout_isr
                0x0000000000007e52       0x88 build/default/production/mcc_generated_files/drivers/timeout.o
                0x0000000000007e52                timeout_isr

.text.winc_bus_set_reg_bits
                0x0000000000007eda       0x88
 .text.winc_bus_set_reg_bits
                0x0000000000007eda       0x88 build/default/production/mcc_generated_files/winc/driver/winc_spi.o
                0x0000000000007eda                winc_bus_set_reg_bits

.text.MQTT_ExchangeBufferWrite
                0x0000000000007f62       0x86
 .text.MQTT_ExchangeBufferWrite
                0x0000000000007f62       0x86 build/default/production/mcc_generated_files/mqtt/mqtt_exchange_buffer/mqtt_exchange_buffer.o
                0x0000000000007f62                MQTT_ExchangeBufferWrite

.text.CRYPTO_CLIENT_printSerialNumber
                0x0000000000007fe8       0x84
 .text.CRYPTO_CLIENT_printSerialNumber
                0x0000000000007fe8       0x84 build/default/production/mcc_generated_files/cloud/crypto_client/crypto_client.o
                0x0000000000007fe8                CRYPTO_CLIENT_printSerialNumber

.text.ecdh_derive_key_pair
                0x000000000000806c       0x84
 .text.ecdh_derive_key_pair
                0x000000000000806c       0x84 build/default/production/mcc_generated_files/cloud/crypto_client/crypto_client.o
                0x000000000000806c                ecdh_derive_key_pair

.text.atcab_sign_base
                0x00000000000080f0       0x84
 .text.atcab_sign_base
                0x00000000000080f0       0x84 build/default/production/mcc_generated_files/CryptoAuthenticationLibrary/basic/atca_basic_sign.o
                0x00000000000080f0                atcab_sign_base

.text.winc_bus_write_reg
                0x0000000000008174       0x84
 .text.winc_bus_write_reg
                0x0000000000008174       0x84 build/default/production/mcc_generated_files/winc/driver/winc_spi.o
                0x0000000000008174                winc_bus_write_reg

.text.MQTT_Disconnect
                0x00000000000081f8       0x82
 .text.MQTT_Disconnect
                0x00000000000081f8       0x82 build/default/production/mcc_generated_files/mqtt/mqtt_core/mqtt_core.o
                0x00000000000081f8                MQTT_Disconnect

.text.wifi_connectToAp
                0x000000000000827a       0x80
 .text.wifi_connectToAp
                0x000000000000827a       0x80 build/default/production/mcc_generated_files/cloud/wifi_service.o
                0x000000000000827a                wifi_connectToAp

.text.hal_check_wake
                0x00000000000082fa       0x80
 .text.hal_check_wake
                0x00000000000082fa       0x80 build/default/production/mcc_generated_files/CryptoAuthenticationLibrary/hal/atca_hal.o
                0x00000000000082fa                hal_check_wake

.text.winc_hif_receive
                0x000000000000837a       0x80
 .text.winc_hif_receive
                0x000000000000837a       0x80 build/default/production/mcc_generated_files/winc/driver/winc_hif.o
                0x000000000000837a                winc_hif_receive

.text.avrlibc   0x00000000000083fa       0x80
 .text.avrlibc  0x00000000000083fa       0x80 c:/program files/microchip/xc8/v2.31/avr/bin/../lib/gcc/avr/5.4.0/../../../../avr/lib/avrxmega3\libc.a(puts.o)
                0x00000000000083fa                puts

.text           0x000000000000847a       0x80
 .text          0x000000000000847a       0x80 c:/program files/microchip/xc8/v2.31/avr/bin/../lib/gcc/avr/5.4.0/../../../../avr/lib/avrxmega3\libc.a(localtime_r.o)
                0x000000000000847a                localtime_r

.text.MQTT_CreateSubscribePacket
                0x00000000000084fa       0x7e
 .text.MQTT_CreateSubscribePacket
                0x00000000000084fa       0x7e build/default/production/mcc_generated_files/mqtt/mqtt_core/mqtt_core.o
                0x00000000000084fa                MQTT_CreateSubscribePacket

.text.winc_drv_init
                0x0000000000008578       0x7e
 .text.winc_drv_init
                0x0000000000008578       0x7e build/default/production/mcc_generated_files/winc/driver/winc_drv.o
                0x0000000000008578                winc_drv_init

.text.hexstr_2_bytes
                0x00000000000085f6       0x7e
 .text.hexstr_2_bytes
                0x00000000000085f6       0x7e build/default/production/mcc_generated_files/winc/m2m/m2m_wifi.o

.text.atcab_random
                0x0000000000008674       0x7c
 .text.atcab_random
                0x0000000000008674       0x7c build/default/production/mcc_generated_files/CryptoAuthenticationLibrary/basic/atca_basic_random.o
                0x0000000000008674                atcab_random

.text.hal_i2c_receive
                0x00000000000086f0       0x7c
 .text.hal_i2c_receive
                0x00000000000086f0       0x7c build/default/production/mcc_generated_files/CryptoAuthenticationLibrary/hal/atca_i2c_hal.o
                0x00000000000086f0                hal_i2c_receive

.text.I2C0_DO_TX_EMPTY
                0x000000000000876c       0x7c
 .text.I2C0_DO_TX_EMPTY
                0x000000000000876c       0x7c build/default/production/mcc_generated_files/src/twi0_master.o

.text.OLED_PutChar
                0x00000000000087e8       0x7c
 .text.OLED_PutChar
                0x00000000000087e8       0x7c build/default/production/mcc_generated_files/application_manager.o
                0x00000000000087e8                OLED_PutChar

.text.atcab_read_serial_number
                0x0000000000008864       0x7a
 .text.atcab_read_serial_number
                0x0000000000008864       0x7a build/default/production/mcc_generated_files/CryptoAuthenticationLibrary/basic/atca_basic_read.o
                0x0000000000008864                atcab_read_serial_number

.text.debug_printer
                0x00000000000088de       0x7a
 .text.debug_printer
                0x00000000000088de       0x7a build/default/production/mcc_generated_files/debug_print.o
                0x00000000000088de                debug_printer

.text.winc_chip_sleep
                0x0000000000008958       0x78
 .text.winc_chip_sleep
                0x0000000000008958       0x78 build/default/production/mcc_generated_files/winc/driver/winc_asic.o
                0x0000000000008958                winc_chip_sleep

.text.updateDeviceShadow
                0x00000000000089d0       0x78
 .text.updateDeviceShadow
                0x00000000000089d0       0x78 build/default/production/mcc_generated_files/application_manager.o

.text.avrlibc   0x0000000000008a48       0x78
 .text.avrlibc  0x0000000000008a48       0x78 c:/program files/microchip/xc8/v2.31/avr/bin/../lib/gcc/avr/5.4.0/../../../../avr/lib/avrxmega3\libc.a(fputc.o)
                0x0000000000008a48                fputc

.text.MQTT_CLIENT_subscribe
                0x0000000000008ac0       0x76
 .text.MQTT_CLIENT_subscribe
                0x0000000000008ac0       0x76 build/default/production/mcc_generated_files/cloud/mqtt_service.o
                0x0000000000008ac0                MQTT_CLIENT_subscribe

.text.__vector_3
                0x0000000000008b36       0x76
 .text.__vector_3
                0x0000000000008b36       0x76 build/default/production/mcc_generated_files/src/rtc.o
                0x0000000000008b36                __vector_3

.text.m2m_fwinfo_version_check
                0x0000000000008bac       0x74
 .text.m2m_fwinfo_version_check
                0x0000000000008bac       0x74 build/default/production/mcc_generated_files/winc/m2m/m2m_fwinfo.o
                0x0000000000008bac                m2m_fwinfo_version_check

.text.dnsHandler
                0x0000000000008c20       0x72
 .text.dnsHandler
                0x0000000000008c20       0x72 build/default/production/mcc_generated_files/cloud/cloud_service.o

.text.I2C0_DO_TX
                0x0000000000008c92       0x70
 .text.I2C0_DO_TX
                0x0000000000008c92       0x70 build/default/production/mcc_generated_files/src/twi0_master.o

.text.atCRC     0x0000000000008d02       0x6e
 .text.atCRC    0x0000000000008d02       0x6e build/default/production/mcc_generated_files/CryptoAuthenticationLibrary/atca_command.o
                0x0000000000008d02                atCRC

.text.PORT_Initialize
                0x0000000000008d70       0x6e
 .text.PORT_Initialize
                0x0000000000008d70       0x6e build/default/production/mcc_generated_files/src/pin_manager.o
                0x0000000000008d70                PORT_Initialize

.text.spi_data_read
                0x0000000000008dde       0x6e
 .text.spi_data_read
                0x0000000000008dde       0x6e build/default/production/mcc_generated_files/winc/driver/winc_spi.o

.text.m2m_wifi_start_provision_mode
                0x0000000000008e4c       0x6e
 .text.m2m_wifi_start_provision_mode
                0x0000000000008e4c       0x6e build/default/production/mcc_generated_files/winc/m2m/m2m_wifi.o
                0x0000000000008e4c                m2m_wifi_start_provision_mode

.text.initDeviceShadow
                0x0000000000008eba       0x6e
 .text.initDeviceShadow
                0x0000000000008eba       0x6e build/default/production/mcc_generated_files/application_manager.o
                0x0000000000008eba                initDeviceShadow

.text.atcab_sign
                0x0000000000008f28       0x6c
 .text.atcab_sign
                0x0000000000008f28       0x6c build/default/production/mcc_generated_files/CryptoAuthenticationLibrary/basic/atca_basic_sign.o
                0x0000000000008f28                atcab_sign

.text.I2C0_Open
                0x0000000000008f94       0x6c
 .text.I2C0_Open
                0x0000000000008f94       0x6c build/default/production/mcc_generated_files/src/twi0_master.o
                0x0000000000008f94                I2C0_Open

.text.spi_rsp   0x0000000000009000       0x6a
 .text.spi_rsp  0x0000000000009000       0x6a build/default/production/mcc_generated_files/winc/driver/winc_spi.o

.text.wifi_reinit
                0x000000000000906a       0x68
 .text.wifi_reinit
                0x000000000000906a       0x68 build/default/production/mcc_generated_files/cloud/wifi_service.o
                0x000000000000906a                wifi_reinit

.text.hal_i2c_wake
                0x00000000000090d2       0x68
 .text.hal_i2c_wake
                0x00000000000090d2       0x68 build/default/production/mcc_generated_files/CryptoAuthenticationLibrary/hal/atca_i2c_hal.o
                0x00000000000090d2                hal_i2c_wake

.text.timeout_callNextCallback
                0x000000000000913a       0x68
 .text.timeout_callNextCallback
                0x000000000000913a       0x68 build/default/production/mcc_generated_files/drivers/timeout.o
                0x000000000000913a                timeout_callNextCallback

.text.atCheckCrc
                0x00000000000091a2       0x66
 .text.atCheckCrc
                0x00000000000091a2       0x66 build/default/production/mcc_generated_files/CryptoAuthenticationLibrary/atca_command.o
                0x00000000000091a2                atCheckCrc

.text.m2m_wifi_init_start
                0x0000000000009208       0x66
 .text.m2m_wifi_init_start
                0x0000000000009208       0x66 build/default/production/mcc_generated_files/winc/m2m/m2m_wifi.o
                0x0000000000009208                m2m_wifi_init_start

.text.ntpTimeFetchTask
                0x000000000000926e       0x64
 .text.ntpTimeFetchTask
                0x000000000000926e       0x64 build/default/production/mcc_generated_files/cloud/wifi_service.o
                0x000000000000926e                ntpTimeFetchTask

.text.CLOUD_init
                0x00000000000092d2       0x62
 .text.CLOUD_init
                0x00000000000092d2       0x62 build/default/production/mcc_generated_files/cloud/aws_cloud_service.o
                0x00000000000092d2                CLOUD_init

.text.isATCAError
                0x0000000000009334       0x62
 .text.isATCAError
                0x0000000000009334       0x62 build/default/production/mcc_generated_files/CryptoAuthenticationLibrary/atca_command.o
                0x0000000000009334                isATCAError

.text._atinit   0x0000000000009396       0x62
 .text._atinit  0x0000000000009396       0x62 build/default/production/mcc_generated_files/CryptoAuthenticationLibrary/atca_iface.o
                0x0000000000009396                _atinit

.text.BSD_socket
                0x00000000000093f8       0x62
 .text.BSD_socket
                0x00000000000093f8       0x62 build/default/production/mcc_generated_files/mqtt/mqtt_winc_adapter.o
                0x00000000000093f8                BSD_socket

.text.m2m_wifi_configure_sntp
                0x000000000000945a       0x62
 .text.m2m_wifi_configure_sntp
                0x000000000000945a       0x62 build/default/production/mcc_generated_files/winc/m2m/m2m_wifi.o
                0x000000000000945a                m2m_wifi_configure_sntp

.text.atcab_get_addr
                0x00000000000094bc       0x5e
 .text.atcab_get_addr
                0x00000000000094bc       0x5e build/default/production/mcc_generated_files/CryptoAuthenticationLibrary/basic/atca_basic.o
                0x00000000000094bc                atcab_get_addr

.text.atinit    0x000000000000951a       0x5e
 .text.atinit   0x000000000000951a       0x5e build/default/production/mcc_generated_files/CryptoAuthenticationLibrary/atca_iface.o
                0x000000000000951a                atinit

.text.TIME_ntpTimeStamp
                0x0000000000009578       0x5e
 .text.TIME_ntpTimeStamp
                0x0000000000009578       0x5e build/default/production/mcc_generated_files/time_service.o
                0x0000000000009578                TIME_ntpTimeStamp

.text.initATCADevice
                0x00000000000095d6       0x5c
 .text.initATCADevice
                0x00000000000095d6       0x5c build/default/production/mcc_generated_files/CryptoAuthenticationLibrary/atca_device.o
                0x00000000000095d6                initATCADevice

.text.atcab_lock
                0x0000000000009632       0x5a
 .text.atcab_lock
                0x0000000000009632       0x5a build/default/production/mcc_generated_files/CryptoAuthenticationLibrary/basic/atca_basic_lock.o
                0x0000000000009632                atcab_lock

.text.i2c_write1ByteRegister
                0x000000000000968c       0x5a
 .text.i2c_write1ByteRegister
                0x000000000000968c       0x5a build/default/production/mcc_generated_files/drivers/i2c_simple_master.o
                0x000000000000968c                i2c_write1ByteRegister

.text.I2C0_MasterIsr
                0x00000000000096e6       0x5a
 .text.I2C0_MasterIsr
                0x00000000000096e6       0x5a build/default/production/mcc_generated_files/src/twi0_master.o

.text.wifi_init
                0x0000000000009740       0x58
 .text.wifi_init
                0x0000000000009740       0x58 build/default/production/mcc_generated_files/cloud/wifi_service.o
                0x0000000000009740                wifi_init

.text.CLOUD_disconnect
                0x0000000000009798       0x58
 .text.CLOUD_disconnect
                0x0000000000009798       0x58 build/default/production/mcc_generated_files/cloud/aws_cloud_service.o
                0x0000000000009798                CLOUD_disconnect

.text.__vector_23
                0x00000000000097f0       0x58
 .text.__vector_23
                0x00000000000097f0       0x58 build/default/production/mcc_generated_files/src/adc0.o
                0x00000000000097f0                __vector_23

.text.__vector_4
                0x0000000000009848       0x58
 .text.__vector_4
                0x0000000000009848       0x58 build/default/production/mcc_generated_files/src/rtc.o
                0x0000000000009848                __vector_4

.text.hal_iface_init
                0x00000000000098a0       0x56
 .text.hal_iface_init
                0x00000000000098a0       0x56 build/default/production/mcc_generated_files/CryptoAuthenticationLibrary/hal/atca_hal.o
                0x00000000000098a0                hal_iface_init

.text.MQTT_CLIENT_publish
                0x00000000000098f6       0x54
 .text.MQTT_CLIENT_publish
                0x00000000000098f6       0x54 build/default/production/mcc_generated_files/cloud/mqtt_service.o
                0x00000000000098f6                MQTT_CLIENT_publish

.text.MQTT_CLIENT_connect
                0x000000000000994a       0x54
 .text.MQTT_CLIENT_connect
                0x000000000000994a       0x54 build/default/production/mcc_generated_files/cloud/mqtt_service.o
                0x000000000000994a                MQTT_CLIENT_connect

.text.loadDefaultAWSEndpoint
                0x000000000000999e       0x54
 .text.loadDefaultAWSEndpoint
                0x000000000000999e       0x54 build/default/production/mcc_generated_files/application_manager.o
                0x000000000000999e                loadDefaultAWSEndpoint

.text.__vector_31
                0x00000000000099f2       0x52
 .text.__vector_31
                0x00000000000099f2       0x52 build/default/production/mcc_generated_files/src/usart2.o
                0x00000000000099f2                __vector_31

.text.__vector_32
                0x0000000000009a44       0x52
 .text.__vector_32
                0x0000000000009a44       0x52 build/default/production/mcc_generated_files/src/usart2.o
                0x0000000000009a44                __vector_32

.text.MQTT_ClientInitialise
                0x0000000000009a96       0x50
 .text.MQTT_ClientInitialise
                0x0000000000009a96       0x50 build/default/production/mcc_generated_files/mqtt/mqtt_comm_bsd/mqtt_comm_layer.o
                0x0000000000009a96                MQTT_ClientInitialise

.text.getSocketInfo
                0x0000000000009ae6       0x50
 .text.getSocketInfo
                0x0000000000009ae6       0x50 build/default/production/mcc_generated_files/mqtt/mqtt_winc_adapter.o
                0x0000000000009ae6                getSocketInfo

.text.winc_bus_read_reg
                0x0000000000009b36       0x50
 .text.winc_bus_read_reg
                0x0000000000009b36       0x50 build/default/production/mcc_generated_files/winc/driver/winc_spi.o
                0x0000000000009b36                winc_bus_read_reg

.text.avrlibc   0x0000000000009b86       0x4e
 .text.avrlibc  0x0000000000009b86       0x4e c:/program files/microchip/xc8/v2.31/avr/bin/../lib/gcc/avr/5.4.0/../../../../avr/lib/avrxmega3\libc.a(atol.o)
                0x0000000000009b86                atol

.text.avrlibc   0x0000000000009bd4       0x4e
 .text.avrlibc  0x0000000000009bd4       0x4e c:/program files/microchip/xc8/v2.31/avr/bin/../lib/gcc/avr/5.4.0/../../../../avr/lib/avrxmega3\libc.a(strtok_r.o)
                0x0000000000009bd4                strtok_r

.rodata         0x000000000080dc22       0x4d load address 0x0000000000009c22
 .rodata        0x000000000080dc22       0x4d build/default/production/mcc_generated_files/cloud/mqtt_service.o

.text.softApConnectTask
                0x0000000000009c70       0x4c
 .text.softApConnectTask
                0x0000000000009c70       0x4c build/default/production/mcc_generated_files/cloud/wifi_service.o
                0x0000000000009c70                softApConnectTask

.text.CLKCTRL_Initialize
                0x0000000000009cbc       0x4c
 .text.CLKCTRL_Initialize
                0x0000000000009cbc       0x4c build/default/production/mcc_generated_files/mcc.o
                0x0000000000009cbc                CLKCTRL_Initialize

.text.I2C0_set_callback
                0x0000000000009d08       0x4a
 .text.I2C0_set_callback
                0x0000000000009d08       0x4a build/default/production/mcc_generated_files/src/twi0_master.o

.text.wifi_disconnectFromAp
                0x0000000000009d52       0x48
 .text.wifi_disconnectFromAp
                0x0000000000009d52       0x48 build/default/production/mcc_generated_files/cloud/wifi_service.o
                0x0000000000009d52                wifi_disconnectFromAp

.text.BSD_close
                0x0000000000009d9a       0x48
 .text.BSD_close
                0x0000000000009d9a       0x48 build/default/production/mcc_generated_files/mqtt/mqtt_winc_adapter.o
                0x0000000000009d9a                BSD_close

.text.I2C0_Close
                0x0000000000009de2       0x48
 .text.I2C0_Close
                0x0000000000009de2       0x48 build/default/production/mcc_generated_files/src/twi0_master.o
                0x0000000000009de2                I2C0_Close

.text.__vector_15
                0x0000000000009e2a       0x48
 .text.__vector_15
                0x0000000000009e2a       0x48 build/default/production/mcc_generated_files/src/twi0_master.o
                0x0000000000009e2a                __vector_15

.text.i2c_writeNBytes
                0x0000000000009e72       0x46
 .text.i2c_writeNBytes
                0x0000000000009e72       0x46 build/default/production/mcc_generated_files/drivers/i2c_simple_master.o
                0x0000000000009e72                i2c_writeNBytes

.text.USART2_Initialize
                0x0000000000009eb8       0x46
 .text.USART2_Initialize
                0x0000000000009eb8       0x46 build/default/production/mcc_generated_files/src/usart2.o
                0x0000000000009eb8                USART2_Initialize

.text.m2m_wifi_connect_open
                0x0000000000009efe       0x46
 .text.m2m_wifi_connect_open
                0x0000000000009efe       0x46 build/default/production/mcc_generated_files/winc/m2m/m2m_wifi.o
                0x0000000000009efe                m2m_wifi_connect_open

.text.atVerify  0x0000000000009f44       0x44
 .text.atVerify
                0x0000000000009f44       0x44 build/default/production/mcc_generated_files/CryptoAuthenticationLibrary/atca_command.o
                0x0000000000009f44                atVerify

.text.I2C0_DO_ADDRESS_NACK
                0x0000000000009f88       0x44
 .text.I2C0_DO_ADDRESS_NACK
                0x0000000000009f88       0x44 build/default/production/mcc_generated_files/src/twi0_master.o

.text.libgcc.div
                0x0000000000009fcc       0x44
 .text.libgcc.div
                0x0000000000009fcc       0x44 c:/program files/microchip/xc8/v2.31/avr/bin/../lib/gcc/avr/5.4.0/avrxmega3\libgcc.a(_udivmodsi4.o)
                0x0000000000009fcc                __udivmodsi4

.text.avrlibc   0x000000000000a010       0x44
 .text.avrlibc  0x000000000000a010       0x44 c:/program files/microchip/xc8/v2.31/avr/bin/../lib/gcc/avr/5.4.0/../../../../avr/lib/avrxmega3\libc.a(sprintf.o)
                0x000000000000a010                sprintf

.text.NETWORK_wifiSslCallback
                0x000000000000a054       0x42
 .text.NETWORK_wifiSslCallback
                0x000000000000a054       0x42 build/default/production/mcc_generated_files/cloud/aws_cloud_service.o
                0x000000000000a054                NETWORK_wifiSslCallback

.rodata.device_execution_time_608_m2
                0x000000000080e096       0x42 load address 0x000000000000a096
 .rodata.device_execution_time_608_m2
                0x000000000080e096       0x42 build/default/production/mcc_generated_files/CryptoAuthenticationLibrary/atca_execution.o

.rodata.device_execution_time_608_m1
                0x000000000080e0d8       0x42 load address 0x000000000000a0d8
 .rodata.device_execution_time_608_m1
                0x000000000080e0d8       0x42 build/default/production/mcc_generated_files/CryptoAuthenticationLibrary/atca_execution.o

.rodata.device_execution_time_608_m0
                0x000000000080e11a       0x42 load address 0x000000000000a11a
 .rodata.device_execution_time_608_m0
                0x000000000080e11a       0x42 build/default/production/mcc_generated_files/CryptoAuthenticationLibrary/atca_execution.o

.text.ecdh_derive_server_shared_secret
                0x000000000000a15c       0x40
 .text.ecdh_derive_server_shared_secret
                0x000000000000a15c       0x40 build/default/production/mcc_generated_files/cloud/crypto_client/crypto_client.o
                0x000000000000a15c                ecdh_derive_server_shared_secret

.text.I2C0_DO_BUS_COLLISION
                0x000000000000a19c       0x3e
 .text.I2C0_DO_BUS_COLLISION
                0x000000000000a19c       0x3e build/default/production/mcc_generated_files/src/twi0_master.o

.text.USART2_DefaultTxIsrCb
                0x000000000000a1da       0x3e
 .text.USART2_DefaultTxIsrCb
                0x000000000000a1da       0x3e build/default/production/mcc_generated_files/src/usart2.o
                0x000000000000a1da                USART2_DefaultTxIsrCb

.text.USART2_Write
                0x000000000000a218       0x3e
 .text.USART2_Write
                0x000000000000a218       0x3e build/default/production/mcc_generated_files/src/usart2.o
                0x000000000000a218                USART2_Write

.rodata.device_execution_time_508
                0x000000000080e256       0x3c load address 0x000000000000a256
 .rodata.device_execution_time_508
                0x000000000080e256       0x3c build/default/production/mcc_generated_files/CryptoAuthenticationLibrary/atca_execution.o

.text.winc_chip_interrupts_enable
                0x000000000000a292       0x3c
 .text.winc_chip_interrupts_enable
                0x000000000000a292       0x3c build/default/production/mcc_generated_files/winc/driver/winc_asic.o
                0x000000000000a292                winc_chip_interrupts_enable

.text.winc_chip_halt
                0x000000000000a2ce       0x3c
 .text.winc_chip_halt
                0x000000000000a2ce       0x3c build/default/production/mcc_generated_files/winc/driver/winc_asic.o
                0x000000000000a2ce                winc_chip_halt

.text.i2c_readNBytes
                0x000000000000a30a       0x3a
 .text.i2c_readNBytes
                0x000000000000a30a       0x3a build/default/production/mcc_generated_files/drivers/i2c_simple_master.o
                0x000000000000a30a                i2c_readNBytes

.text.SYSTEM_Initialize
                0x000000000000a344       0x3a
 .text.SYSTEM_Initialize
                0x000000000000a344       0x3a build/default/production/mcc_generated_files/mcc.o
                0x000000000000a344                SYSTEM_Initialize

.rodata.device_execution_time_108
                0x000000000080e37e       0x39 load address 0x000000000000a37e
 .rodata.device_execution_time_108
                0x000000000080e37e       0x39 build/default/production/mcc_generated_files/CryptoAuthenticationLibrary/atca_execution.o

.text.get_device_id
                0x000000000000a3b8       0x38
 .text.get_device_id
                0x000000000000a3b8       0x38 build/default/production/mcc_generated_files/cli/cli.o

.text.getMQTT_ConnectionAge
                0x000000000000a3f0       0x38
 .text.getMQTT_ConnectionAge
                0x000000000000a3f0       0x38 build/default/production/mcc_generated_files/cloud/cloud_service.o

.text.winc_adapter_sleep
                0x000000000000a428       0x38
 .text.winc_adapter_sleep
                0x000000000000a428       0x38 build/default/production/mcc_generated_files/winc/driver/winc_adapter.o
                0x000000000000a428                winc_adapter_sleep

.text.CLOUD_connectAppProtocol
                0x000000000000a460       0x36
 .text.CLOUD_connectAppProtocol
                0x000000000000a460       0x36 build/default/production/mcc_generated_files/cloud/aws_cloud_service.o
                0x000000000000a460                CLOUD_connectAppProtocol

.text.atNonce   0x000000000000a496       0x36
 .text.atNonce  0x000000000000a496       0x36 build/default/production/mcc_generated_files/CryptoAuthenticationLibrary/atca_command.o
                0x000000000000a496                atNonce

.text.MQTT_Send
                0x000000000000a4cc       0x36
 .text.MQTT_Send
                0x000000000000a4cc       0x36 build/default/production/mcc_generated_files/mqtt/mqtt_comm_bsd/mqtt_comm_layer.o
                0x000000000000a4cc                MQTT_Send

.text.RTC_Initialize
                0x000000000000a502       0x36
 .text.RTC_Initialize
                0x000000000000a502       0x36 build/default/production/mcc_generated_files/src/rtc.o
                0x000000000000a502                RTC_Initialize

.text.m2m_ssl_handshake_rsp
                0x000000000000a538       0x36
 .text.m2m_ssl_handshake_rsp
                0x000000000000a538       0x36 build/default/production/mcc_generated_files/winc/m2m/m2m_ssl.o
                0x000000000000a538                m2m_ssl_handshake_rsp

.text           0x000000000000a56e       0x36
 .text          0x000000000000a56e       0x36 c:/program files/microchip/xc8/v2.31/avr/bin/../lib/gcc/avr/5.4.0/../../../../avr/lib/avrxmega3\libc.a(ctime.o)
                0x000000000000a56e                ctime

.text.m2m_wifi_get_firmware_version
                0x000000000000a5a4       0x34
 .text.m2m_wifi_get_firmware_version
                0x000000000000a5a4       0x34 build/default/production/mcc_generated_files/winc/m2m/m2m_wifi.o
                0x000000000000a5a4                m2m_wifi_get_firmware_version

.text.avrlibc   0x000000000000a5d8       0x34
 .text.avrlibc  0x000000000000a5d8       0x34 c:/program files/microchip/xc8/v2.31/avr/bin/../lib/gcc/avr/5.4.0/../../../../avr/lib/avrxmega3\libc.a(strstr.o)
                0x000000000000a5d8                strstr

.text.mqttTimeoutTask
                0x000000000000a60c       0x32
 .text.mqttTimeoutTask
                0x000000000000a60c       0x32 build/default/production/mcc_generated_files/cloud/cloud_service.o
                0x000000000000a60c                mqttTimeoutTask

.text.mqttEncodeLength
                0x000000000000a63e       0x32
 .text.mqttEncodeLength
                0x000000000000a63e       0x32 build/default/production/mcc_generated_files/mqtt/mqtt_core/mqtt_core.o

.text.USART2_Read
                0x000000000000a670       0x32
 .text.USART2_Read
                0x000000000000a670       0x32 build/default/production/mcc_generated_files/src/usart2.o
                0x000000000000a670                USART2_Read

.text.winc_hif_chip_sleep
                0x000000000000a6a2       0x32
 .text.winc_hif_chip_sleep
                0x000000000000a6a2       0x32 build/default/production/mcc_generated_files/winc/driver/winc_hif.o
                0x000000000000a6a2                winc_hif_chip_sleep

.text.m2m_ssl_set_active_ciphersuites
                0x000000000000a6d4       0x32
 .text.m2m_ssl_set_active_ciphersuites
                0x000000000000a6d4       0x32 build/default/production/mcc_generated_files/winc/m2m/m2m_ssl.o
                0x000000000000a6d4                m2m_ssl_set_active_ciphersuites

.text.gethostbyname
                0x000000000000a706       0x32
 .text.gethostbyname
                0x000000000000a706       0x32 build/default/production/mcc_generated_files/winc/socket/socket.o
                0x000000000000a706                gethostbyname

.text.libgcc.prologue
                0x000000000000a738       0x32
 .text.libgcc.prologue
                0x000000000000a738       0x32 c:/program files/microchip/xc8/v2.31/avr/bin/../lib/gcc/avr/5.4.0/avrxmega3\libgcc.a(_prologue.o)
                0x000000000000a738                __prologue_saves__

.text.checkBackTask
                0x000000000000a76a       0x30
 .text.checkBackTask
                0x000000000000a76a       0x30 build/default/production/mcc_generated_files/cloud/wifi_service.o
                0x000000000000a76a                checkBackTask

.text.winc_hif_chip_wake
                0x000000000000a79a       0x30
 .text.winc_hif_chip_wake
                0x000000000000a79a       0x30 build/default/production/mcc_generated_files/winc/driver/winc_hif.o
                0x000000000000a79a                winc_hif_chip_wake

.text.m2m_ssl_retrieve_hash
                0x000000000000a7ca       0x30
 .text.m2m_ssl_retrieve_hash
                0x000000000000a7ca       0x30 build/default/production/mcc_generated_files/winc/m2m/m2m_ssl.o
                0x000000000000a7ca                m2m_ssl_retrieve_hash

.text.libgcc.prologue
                0x000000000000a7fa       0x30
 .text.libgcc.prologue
                0x000000000000a7fa       0x30 c:/program files/microchip/xc8/v2.31/avr/bin/../lib/gcc/avr/5.4.0/avrxmega3\libgcc.a(_epilogue.o)
                0x000000000000a7fa                __epilogue_restores__

.text.I2C0_MasterOperation
                0x000000000000a82a       0x2e
 .text.I2C0_MasterOperation
                0x000000000000a82a       0x2e build/default/production/mcc_generated_files/src/twi0_master.o
                0x000000000000a82a                I2C0_MasterOperation

.text.libgcc.div
                0x000000000000a858       0x2e
 .text.libgcc.div
                0x000000000000a858       0x2e c:/program files/microchip/xc8/v2.31/avr/bin/../lib/gcc/avr/5.4.0/avrxmega3\libgcc.a(_divmodsi4.o)
                0x000000000000a858                __divmodsi4

.text.ADC0_Initialize
                0x000000000000a886       0x2c
 .text.ADC0_Initialize
                0x000000000000a886       0x2c build/default/production/mcc_generated_files/src/adc0.o
                0x000000000000a886                ADC0_Initialize

.text.USART2_DefaultRxIsrCb
                0x000000000000a8b2       0x2c
 .text.USART2_DefaultRxIsrCb
                0x000000000000a8b2       0x2c build/default/production/mcc_generated_files/src/usart2.o
                0x000000000000a8b2                USART2_DefaultRxIsrCb

.text.winc_adapter_interrupt_serviced
                0x000000000000a8de       0x2c
 .text.winc_adapter_interrupt_serviced
                0x000000000000a8de       0x2c build/default/production/mcc_generated_files/winc/driver/winc_adapter.o
                0x000000000000a8de                winc_adapter_interrupt_serviced

.text.socketDeinit
                0x000000000000a90a       0x2c
 .text.socketDeinit
                0x000000000000a90a       0x2c build/default/production/mcc_generated_files/winc/socket/socket.o
                0x000000000000a90a                socketDeinit

.text.OLED_YX   0x000000000000a936       0x2c
 .text.OLED_YX  0x000000000000a936       0x2c build/default/production/mcc_generated_files/application_manager.o
                0x000000000000a936                OLED_YX

.text.OLED_Clear
                0x000000000000a962       0x2c
 .text.OLED_Clear
                0x000000000000a962       0x2c build/default/production/mcc_generated_files/application_manager.o
                0x000000000000a962                OLED_Clear

.text.avrlibc   0x000000000000a98e       0x2c
 .text.avrlibc  0x000000000000a98e       0x2c c:/program files/microchip/xc8/v2.31/avr/bin/../lib/gcc/avr/5.4.0/../../../../avr/lib/avrxmega3\libc.a(printf.o)
                0x000000000000a98e                printf

.text.hal_i2c_idle
                0x000000000000a9ba       0x2a
 .text.hal_i2c_idle
                0x000000000000a9ba       0x2a build/default/production/mcc_generated_files/CryptoAuthenticationLibrary/hal/atca_i2c_hal.o
                0x000000000000a9ba                hal_i2c_idle

.text.hal_i2c_sleep
                0x000000000000a9e4       0x2a
 .text.hal_i2c_sleep
                0x000000000000a9e4       0x2a build/default/production/mcc_generated_files/CryptoAuthenticationLibrary/hal/atca_i2c_hal.o
                0x000000000000a9e4                hal_i2c_sleep

.rodata.device_execution_time_204
                0x000000000080ea0e       0x2a load address 0x000000000000aa0e
 .rodata.device_execution_time_204
                0x000000000080ea0e       0x2a build/default/production/mcc_generated_files/CryptoAuthenticationLibrary/atca_execution.o

.text.atwake    0x000000000000aa38       0x2a
 .text.atwake   0x000000000000aa38       0x2a build/default/production/mcc_generated_files/CryptoAuthenticationLibrary/atca_iface.o
                0x000000000000aa38                atwake

.text.stopTimeouts
                0x000000000000aa62       0x2a
 .text.stopTimeouts
                0x000000000000aa62       0x2a build/default/production/mcc_generated_files/drivers/timeout.o
                0x000000000000aa62                stopTimeouts

.text.__vector_33
                0x000000000000aa8c       0x2a
 .text.__vector_33
                0x000000000000aa8c       0x2a build/default/production/mcc_generated_files/src/usart2.o
                0x000000000000aa8c                __vector_33

.text.winc_hif_send_no_data
                0x000000000000aab6       0x2a
 .text.winc_hif_send_no_data
                0x000000000000aab6       0x2a build/default/production/mcc_generated_files/winc/driver/winc_hif.o
                0x000000000000aab6                winc_hif_send_no_data

.text.spi_cmd_send
                0x000000000000aae0       0x2a
 .text.spi_cmd_send
                0x000000000000aae0       0x2a build/default/production/mcc_generated_files/winc/driver/winc_spi.o

.text.OLED_gotoxy
                0x000000000000ab0a       0x2a
 .text.OLED_gotoxy
                0x000000000000ab0a       0x2a build/default/production/mcc_generated_files/application_manager.o
                0x000000000000ab0a                OLED_gotoxy

.text.avrlibc   0x000000000000ab34       0x2a
 .text.avrlibc  0x000000000000ab34       0x2a c:/program files/microchip/xc8/v2.31/avr/bin/../lib/gcc/avr/5.4.0/../../../../avr/lib/avrxmega3\libc.a(mulsi10.o)
                0x000000000000ab34                __mulsi_const_10

.text.CLI_init  0x000000000000ab5e       0x28
 .text.CLI_init
                0x000000000000ab5e       0x28 build/default/production/mcc_generated_files/cli/cli.o
                0x000000000000ab5e                CLI_init

.text.CLOUD_reset
                0x000000000000ab86       0x28
 .text.CLOUD_reset
                0x000000000000ab86       0x28 build/default/production/mcc_generated_files/cloud/cloud_service.o
                0x000000000000ab86                CLOUD_reset

.text.atcab_nonce_load
                0x000000000000abae       0x28
 .text.atcab_nonce_load
                0x000000000000abae       0x28 build/default/production/mcc_generated_files/CryptoAuthenticationLibrary/basic/atca_basic_nonce.o
                0x000000000000abae                atcab_nonce_load

.text.timeout_delete
                0x000000000000abd6       0x28
 .text.timeout_delete
                0x000000000000abd6       0x28 build/default/production/mcc_generated_files/drivers/timeout.o
                0x000000000000abd6                timeout_delete

.text.MQTT_GetReceivedData
                0x000000000000abfe       0x28
 .text.MQTT_GetReceivedData
                0x000000000000abfe       0x28 build/default/production/mcc_generated_files/mqtt/mqtt_comm_bsd/mqtt_comm_layer.o
                0x000000000000abfe                MQTT_GetReceivedData

.text.TIME_GetcTime
                0x000000000000ac26       0x28
 .text.TIME_GetcTime
                0x000000000000ac26       0x28 build/default/production/mcc_generated_files/time_service.o
                0x000000000000ac26                TIME_GetcTime

.text.libgcc.div
                0x000000000000ac4e       0x28
 .text.libgcc.div
                0x000000000000ac4e       0x28 c:/program files/microchip/xc8/v2.31/avr/bin/../lib/gcc/avr/5.4.0/avrxmega3\libgcc.a(_udivmodhi4.o)
                0x000000000000ac4e                __udivmodhi4

.text.libgcc.div
                0x000000000000ac76       0x28
 .text.libgcc.div
                0x000000000000ac76       0x28 c:/program files/microchip/xc8/v2.31/avr/bin/../lib/gcc/avr/5.4.0/avrxmega3\libgcc.a(_divmodhi4.o)
                0x000000000000ac76                _div
                0x000000000000ac76                __divmodhi4

.text           0x000000000000ac9e       0x28
 .text          0x000000000000ac9e       0x28 c:/program files/microchip/xc8/v2.31/avr/bin/../lib/gcc/avr/5.4.0/../../../../avr/lib/avrxmega3\libc.a(isLeap.o)
                0x000000000000ac9e                is_leap_year

.text.CLOUD_registerSubscription
                0x000000000000acc6       0x26
 .text.CLOUD_registerSubscription
                0x000000000000acc6       0x26 build/default/production/mcc_generated_files/cloud/cloud_service.o
                0x000000000000acc6                CLOUD_registerSubscription

.text.CREDENTIALS_STORAGE_clearWifiCredentials
                0x000000000000acec       0x26
 .text.CREDENTIALS_STORAGE_clearWifiCredentials
                0x000000000000acec       0x26 build/default/production/mcc_generated_files/credentials_storage/credentials_storage.o
                0x000000000000acec                CREDENTIALS_STORAGE_clearWifiCredentials

.text.initATCAIface
                0x000000000000ad12       0x26
 .text.initATCAIface
                0x000000000000ad12       0x26 build/default/production/mcc_generated_files/CryptoAuthenticationLibrary/atca_iface.o
                0x000000000000ad12                initATCAIface

.text.checkPingreqTimeoutState
                0x000000000000ad38       0x26
 .text.checkPingreqTimeoutState
                0x000000000000ad38       0x26 build/default/production/mcc_generated_files/mqtt/mqtt_core/mqtt_core.o

.text.SPI0_ExchangeBlock
                0x000000000000ad5e       0x26
 .text.SPI0_ExchangeBlock
                0x000000000000ad5e       0x26 build/default/production/mcc_generated_files/src/spi0.o
                0x000000000000ad5e                SPI0_ExchangeBlock

.text.socketInit
                0x000000000000ad84       0x26
 .text.socketInit
                0x000000000000ad84       0x26 build/default/production/mcc_generated_files/winc/socket/socket.o
                0x000000000000ad84                socketInit

.text.SPI0_WriteBlock
                0x000000000000adaa       0x24
 .text.SPI0_WriteBlock
                0x000000000000adaa       0x24 build/default/production/mcc_generated_files/src/spi0.o
                0x000000000000adaa                SPI0_WriteBlock

.text.SPI0_ReadBlock
                0x000000000000adce       0x24
 .text.SPI0_ReadBlock
                0x000000000000adce       0x24 build/default/production/mcc_generated_files/src/spi0.o
                0x000000000000adce                SPI0_ReadBlock

.text.winc_bus_read_reg_with_ret
                0x000000000000adf2       0x24
 .text.winc_bus_read_reg_with_ret
                0x000000000000adf2       0x24 build/default/production/mcc_generated_files/winc/driver/winc_spi.o
                0x000000000000adf2                winc_bus_read_reg_with_ret

.text           0x000000000000ae16       0x24
 .text          0x000000000000ae16       0x24 c:/program files/microchip/xc8/v2.31/avr/bin/../lib/gcc/avr/5.4.0/../../../../avr/lib/avrxmega3\libc.a(print_lz.o)
                0x000000000000ae16                __print_lz

.text.set_debug_level
                0x000000000000ae3a       0x22
 .text.set_debug_level
                0x000000000000ae3a       0x22 build/default/production/mcc_generated_files/cli/cli.o

.text.atca_delay_ms
                0x000000000000ae5c       0x22
 .text.atca_delay_ms
                0x000000000000ae5c       0x22 build/default/production/mcc_generated_files/CryptoAuthenticationLibrary/hal/hal_i2c_timer.o
                0x000000000000ae5c                atca_delay_ms

.text.atidle    0x000000000000ae7e       0x22
 .text.atidle   0x000000000000ae7e       0x22 build/default/production/mcc_generated_files/CryptoAuthenticationLibrary/atca_iface.o
                0x000000000000ae7e                atidle

.text.releaseATCAIface
                0x000000000000aea0       0x22
 .text.releaseATCAIface
                0x000000000000aea0       0x22 build/default/production/mcc_generated_files/CryptoAuthenticationLibrary/atca_iface.o
                0x000000000000aea0                releaseATCAIface

.text.MQTT_Close
                0x000000000000aec2       0x22
 .text.MQTT_Close
                0x000000000000aec2       0x22 build/default/production/mcc_generated_files/mqtt/mqtt_comm_bsd/mqtt_comm_layer.o
                0x000000000000aec2                MQTT_Close

.text.I2C0_SetBuffer
                0x000000000000aee4       0x22
 .text.I2C0_SetBuffer
                0x000000000000aee4       0x22 build/default/production/mcc_generated_files/src/twi0_master.o
                0x000000000000aee4                I2C0_SetBuffer

.text.m2m_ssl_init
                0x000000000000af06       0x22
 .text.m2m_ssl_init
                0x000000000000af06       0x22 build/default/production/mcc_generated_files/winc/m2m/m2m_ssl.o
                0x000000000000af06                m2m_ssl_init

.text.m2m_wifi_download_mode
                0x000000000000af28       0x22
 .text.m2m_wifi_download_mode
                0x000000000000af28       0x22 build/default/production/mcc_generated_files/winc/m2m/m2m_wifi.o
                0x000000000000af28                m2m_wifi_download_mode

.rodata.commands
                0x000000000080ef4a       0x20 load address 0x000000000000af4a
 .rodata.commands
                0x000000000080ef4a       0x20 build/default/production/mcc_generated_files/cli/cli.o
                0x000000000080ef4a                commands

.text.atGenKey  0x000000000000af6a       0x20
 .text.atGenKey
                0x000000000000af6a       0x20 build/default/production/mcc_generated_files/CryptoAuthenticationLibrary/atca_command.o
                0x000000000000af6a                atGenKey

.text.LED_offServiceRed
                0x000000000000af8a       0x20
 .text.LED_offServiceRed
                0x000000000000af8a       0x20 build/default/production/mcc_generated_files/led.o

.text.LED_onServiceRed
                0x000000000000afaa       0x20
 .text.LED_onServiceRed
                0x000000000000afaa       0x20 build/default/production/mcc_generated_files/led.o

.text.LED_offServiceYellow
                0x000000000000afca       0x20
 .text.LED_offServiceYellow
                0x000000000000afca       0x20 build/default/production/mcc_generated_files/led.o

.text.LED_onServiceYellow
                0x000000000000afea       0x20
 .text.LED_onServiceYellow
                0x000000000000afea       0x20 build/default/production/mcc_generated_files/led.o

.text.LED_offServiceGreen
                0x000000000000b00a       0x20
 .text.LED_offServiceGreen
                0x000000000000b00a       0x20 build/default/production/mcc_generated_files/led.o

.text.LED_onServiceGreen
                0x000000000000b02a       0x20
 .text.LED_onServiceGreen
                0x000000000000b02a       0x20 build/default/production/mcc_generated_files/led.o

.text.LED_offServiceBlue
                0x000000000000b04a       0x20
 .text.LED_offServiceBlue
                0x000000000000b04a       0x20 build/default/production/mcc_generated_files/led.o

.text.LED_onServiceBlue
                0x000000000000b06a       0x20
 .text.LED_onServiceBlue
                0x000000000000b06a       0x20 build/default/production/mcc_generated_files/led.o

.text.USART1_Initialize
                0x000000000000b08a       0x20
 .text.USART1_Initialize
                0x000000000000b08a       0x20 build/default/production/mcc_generated_files/src/usart1.o
                0x000000000000b08a                USART1_Initialize

.text.libgcc.mul
                0x000000000000b0aa       0x20
 .text.libgcc.mul
                0x000000000000b0aa       0x20 c:/program files/microchip/xc8/v2.31/avr/bin/../lib/gcc/avr/5.4.0/avrxmega3\libgcc.a(_mulsi3.o)
                0x000000000000b0aa                __mulsi3

.text.get_firmware_version
                0x000000000000b0ca       0x1e
 .text.get_firmware_version
                0x000000000000b0ca       0x1e build/default/production/mcc_generated_files/cli/cli.o

.text.get_cli_version
                0x000000000000b0e8       0x1e
 .text.get_cli_version
                0x000000000000b0e8       0x1e build/default/production/mcc_generated_files/cli/cli.o

.text.get_thing_name
                0x000000000000b106       0x1e
 .text.get_thing_name
                0x000000000000b106       0x1e build/default/production/mcc_generated_files/cli/cli.o

.text.atca_delay_us
                0x000000000000b124       0x1e
 .text.atca_delay_us
                0x000000000000b124       0x1e build/default/production/mcc_generated_files/CryptoAuthenticationLibrary/hal/hal_i2c_timer.o
                0x000000000000b124                atca_delay_us

.text.__vector_22
                0x000000000000b142       0x1e
 .text.__vector_22
                0x000000000000b142       0x1e build/default/production/mcc_generated_files/src/adc0.o
                0x000000000000b142                __vector_22

.text.SPI0_Open
                0x000000000000b160       0x1e
 .text.SPI0_Open
                0x000000000000b160       0x1e build/default/production/mcc_generated_files/src/spi0.o
                0x000000000000b160                SPI0_Open

.text.OLED_Write_String
                0x000000000000b17e       0x1e
 .text.OLED_Write_String
                0x000000000000b17e       0x1e build/default/production/mcc_generated_files/application_manager.o
                0x000000000000b17e                OLED_Write_String

.text.__vector_2
                0x000000000000b19c       0x1e
 .text.__vector_2
                0x000000000000b19c       0x1e build/default/production/mcc_generated_files/mcc.o
                0x000000000000b19c                __vector_2

.text.libgcc.mul
                0x000000000000b1ba       0x1e
 .text.libgcc.mul
                0x000000000000b1ba       0x1e c:/program files/microchip/xc8/v2.31/avr/bin/../lib/gcc/avr/5.4.0/avrxmega3\libgcc.a(_umulhisi3.o)
                0x000000000000b1ba                __umulhisi3

.text.avrlibc   0x000000000000b1d8       0x1e
 .text.avrlibc  0x000000000000b1d8       0x1e c:/program files/microchip/xc8/v2.31/avr/bin/../lib/gcc/avr/5.4.0/../../../../avr/lib/avrxmega3\libc.a(strncpy.o)
                0x000000000000b1d8                strncpy

.text.I2C0_Initialize
                0x000000000000b1f6       0x1c
 .text.I2C0_Initialize
                0x000000000000b1f6       0x1c build/default/production/mcc_generated_files/src/twi0_master.o
                0x000000000000b1f6                I2C0_Initialize

.text.CPUINT_Initialize
                0x000000000000b212       0x1c
 .text.CPUINT_Initialize
                0x000000000000b212       0x1c build/default/production/mcc_generated_files/src/cpuint.o
                0x000000000000b212                CPUINT_Initialize

.text.CryptoAuth_Initialize
                0x000000000000b22e       0x1c
 .text.CryptoAuth_Initialize
                0x000000000000b22e       0x1c build/default/production/mcc_generated_files/CryptoAuth_init.o
                0x000000000000b22e                CryptoAuth_Initialize

.text.avrlibc   0x000000000000b24a       0x1c
 .text.avrlibc  0x000000000000b24a       0x1c c:/program files/microchip/xc8/v2.31/avr/bin/../lib/gcc/avr/5.4.0/../../../../avr/lib/avrxmega3\libc.a(strncmp.o)
                0x000000000000b24a                strncmp

.text.reset_cmd
                0x000000000000b266       0x1a
 .text.reset_cmd
                0x000000000000b266       0x1a build/default/production/mcc_generated_files/cli/cli.o

.text.atcab_release
                0x000000000000b280       0x1a
 .text.atcab_release
                0x000000000000b280       0x1a build/default/production/mcc_generated_files/CryptoAuthenticationLibrary/basic/atca_basic.o
                0x000000000000b280                atcab_release

.text.atcab_ecdh
                0x000000000000b29a       0x1a
 .text.atcab_ecdh
                0x000000000000b29a       0x1a build/default/production/mcc_generated_files/CryptoAuthenticationLibrary/basic/atca_basic_ecdh.o
                0x000000000000b29a                atcab_ecdh

.text.atCalcCrc
                0x000000000000b2b4       0x1a
 .text.atCalcCrc
                0x000000000000b2b4       0x1a build/default/production/mcc_generated_files/CryptoAuthenticationLibrary/atca_command.o
                0x000000000000b2b4                atCalcCrc

.text.I2C0_DO_SEND_ADR_READ
                0x000000000000b2ce       0x1a
 .text.I2C0_DO_SEND_ADR_READ
                0x000000000000b2ce       0x1a build/default/production/mcc_generated_files/src/twi0_master.o

.text.I2C0_DO_RX_NACK_STOP
                0x000000000000b2e8       0x1a
 .text.I2C0_DO_RX_NACK_STOP
                0x000000000000b2e8       0x1a build/default/production/mcc_generated_files/src/twi0_master.o

.text.m2m_wifi_init
                0x000000000000b302       0x1a
 .text.m2m_wifi_init
                0x000000000000b302       0x1a build/default/production/mcc_generated_files/winc/m2m/m2m_wifi.o
                0x000000000000b302                m2m_wifi_init

.text.application_post_provisioning
                0x000000000000b31c       0x1a
 .text.application_post_provisioning
                0x000000000000b31c       0x1a build/default/production/mcc_generated_files/application_manager.o
                0x000000000000b31c                application_post_provisioning

.text.avrlibc   0x000000000000b336       0x1a
 .text.avrlibc  0x000000000000b336       0x1a c:/program files/microchip/xc8/v2.31/avr/bin/../lib/gcc/avr/5.4.0/../../../../avr/lib/avrxmega3\libc.a(memcmp.o)
                0x000000000000b336                memcmp

.text.wr1RegCompleteHandler
                0x000000000000b350       0x18
 .text.wr1RegCompleteHandler
                0x000000000000b350       0x18 build/default/production/mcc_generated_files/drivers/i2c_simple_master.o

.text.I2C0_DO_SEND_ADR_WRITE
                0x000000000000b368       0x18
 .text.I2C0_DO_SEND_ADR_WRITE
                0x000000000000b368       0x18 build/default/production/mcc_generated_files/src/twi0_master.o

.text.I2C0_DO_BUS_ERROR
                0x000000000000b380       0x18
 .text.I2C0_DO_BUS_ERROR
                0x000000000000b380       0x18 build/default/production/mcc_generated_files/src/twi0_master.o

.text.winc_drv_start
                0x000000000000b398       0x18
 .text.winc_drv_start
                0x000000000000b398       0x18 build/default/production/mcc_generated_files/winc/driver/winc_drv.o
                0x000000000000b398                winc_drv_start

.text.BOD_Initialize
                0x000000000000b3b0       0x18
 .text.BOD_Initialize
                0x000000000000b3b0       0x18 build/default/production/mcc_generated_files/mcc.o
                0x000000000000b3b0                BOD_Initialize

.text.hal_i2c_send
                0x000000000000b3c8       0x16
 .text.hal_i2c_send
                0x000000000000b3c8       0x16 build/default/production/mcc_generated_files/CryptoAuthenticationLibrary/hal/atca_i2c_hal.o
                0x000000000000b3c8                hal_i2c_send

.text.I2C0_DO_RESET
                0x000000000000b3de       0x16
 .text.I2C0_DO_RESET
                0x000000000000b3de       0x16 build/default/production/mcc_generated_files/src/twi0_master.o

.text.I2C0_DO_SEND_STOP
                0x000000000000b3f4       0x16
 .text.I2C0_DO_SEND_STOP
                0x000000000000b3f4       0x16 build/default/production/mcc_generated_files/src/twi0_master.o

.text.RTC_WriteCounter
                0x000000000000b40a       0x16
 .text.RTC_WriteCounter
                0x000000000000b40a       0x16 build/default/production/mcc_generated_files/src/rtc.o
                0x000000000000b40a                RTC_WriteCounter

.text.SPI0_Initialize
                0x000000000000b420       0x16
 .text.SPI0_Initialize
                0x000000000000b420       0x16 build/default/production/mcc_generated_files/src/spi0.o
                0x000000000000b420                SPI0_Initialize

.text.SPI0_OpenConfiguration
                0x000000000000b436       0x16
 .text.SPI0_OpenConfiguration
                0x000000000000b436       0x16 build/default/production/mcc_generated_files/src/spi0.o
                0x000000000000b436                SPI0_OpenConfiguration

.text.m2m_wifi_init_hold
                0x000000000000b44c       0x16
 .text.m2m_wifi_init_hold
                0x000000000000b44c       0x16 build/default/production/mcc_generated_files/winc/m2m/m2m_wifi.o
                0x000000000000b44c                m2m_wifi_init_hold

.text.DELAY_milliseconds
                0x000000000000b462       0x16
 .text.DELAY_milliseconds
                0x000000000000b462       0x16 build/default/production/mcc_generated_files/delay.o
                0x000000000000b462                DELAY_milliseconds

.text.libgcc.mul
                0x000000000000b478       0x16
 .text.libgcc.mul
                0x000000000000b478       0x16 c:/program files/microchip/xc8/v2.31/avr/bin/../lib/gcc/avr/5.4.0/avrxmega3\libgcc.a(_muluhisi3.o)
                0x000000000000b478                __muluhisi3

.text.avrlibc   0x000000000000b48e       0x16
 .text.avrlibc  0x000000000000b48e       0x16 c:/program files/microchip/xc8/v2.31/avr/bin/../lib/gcc/avr/5.4.0/../../../../avr/lib/avrxmega3\libc.a(strchr.o)
                0x000000000000b48e                strchr

.text.avrlibc   0x000000000000b4a4       0x16
 .text.avrlibc  0x000000000000b4a4       0x16 c:/program files/microchip/xc8/v2.31/avr/bin/../lib/gcc/avr/5.4.0/../../../../avr/lib/avrxmega3\libc.a(strnlen_P.o)
                0x000000000000b4a4                strnlen_P

.text.avrlibc   0x000000000000b4ba       0x16
 .text.avrlibc  0x000000000000b4ba       0x16 c:/program files/microchip/xc8/v2.31/avr/bin/../lib/gcc/avr/5.4.0/../../../../avr/lib/avrxmega3\libc.a(strnlen.o)
                0x000000000000b4ba                strnlen

.text.CLOUD_subscribe
                0x000000000000b4d0       0x14
 .text.CLOUD_subscribe
                0x000000000000b4d0       0x14 build/default/production/mcc_generated_files/cloud/aws_cloud_service.o
                0x000000000000b4d0                CLOUD_subscribe

.text.initATCACommand
                0x000000000000b4e4       0x14
 .text.initATCACommand
                0x000000000000b4e4       0x14 build/default/production/mcc_generated_files/CryptoAuthenticationLibrary/atca_command.o
                0x000000000000b4e4                initATCACommand

.text.atECDH    0x000000000000b4f8       0x14
 .text.atECDH   0x000000000000b4f8       0x14 build/default/production/mcc_generated_files/CryptoAuthenticationLibrary/atca_command.o
                0x000000000000b4f8                atECDH

.text.atLock    0x000000000000b50c       0x14
 .text.atLock   0x000000000000b50c       0x14 build/default/production/mcc_generated_files/CryptoAuthenticationLibrary/atca_command.o
                0x000000000000b50c                atLock

.text.atRandom  0x000000000000b520       0x14
 .text.atRandom
                0x000000000000b520       0x14 build/default/production/mcc_generated_files/CryptoAuthenticationLibrary/atca_command.o
                0x000000000000b520                atRandom

.text.atRead    0x000000000000b534       0x14
 .text.atRead   0x000000000000b534       0x14 build/default/production/mcc_generated_files/CryptoAuthenticationLibrary/atca_command.o
                0x000000000000b534                atRead

.text.atSign    0x000000000000b548       0x14
 .text.atSign   0x000000000000b548       0x14 build/default/production/mcc_generated_files/CryptoAuthenticationLibrary/atca_command.o
                0x000000000000b548                atSign

.text.releaseATCADevice
                0x000000000000b55c       0x14
 .text.releaseATCADevice
                0x000000000000b55c       0x14 build/default/production/mcc_generated_files/CryptoAuthenticationLibrary/atca_device.o
                0x000000000000b55c                releaseATCADevice

.rodata.uart    0x000000000080f570       0x14 load address 0x000000000000b570
 .rodata.uart   0x000000000080f570       0x14 build/default/production/mcc_generated_files/drivers/uart.o
                0x000000000080f570                uart

.rodata.spiMaster
                0x000000000080f584       0x14 load address 0x000000000000b584
 .rodata.spiMaster
                0x000000000080f584       0x14 build/default/production/mcc_generated_files/drivers/spi_master.o
                0x000000000080f584                spiMaster

.text.checkPingrespTimeoutState
                0x000000000000b598       0x14
 .text.checkPingrespTimeoutState
                0x000000000000b598       0x14 build/default/production/mcc_generated_files/mqtt/mqtt_core/mqtt_core.o

.text.SPI0_ExchangeByte
                0x000000000000b5ac       0x14
 .text.SPI0_ExchangeByte
                0x000000000000b5ac       0x14 build/default/production/mcc_generated_files/src/spi0.o
                0x000000000000b5ac                SPI0_ExchangeByte

.text.m2m_wifi_connect
                0x000000000000b5c0       0x14
 .text.m2m_wifi_connect
                0x000000000000b5c0       0x14 build/default/production/mcc_generated_files/winc/m2m/m2m_wifi.o
                0x000000000000b5c0                m2m_wifi_connect

.text           0x000000000000b5d4       0x14
 .text          0x000000000000b5d4       0x14 c:/program files/microchip/xc8/v2.31/avr/bin/../lib/gcc/avr/5.4.0/../../../../avr/lib/avrxmega3\libc.a(set_system_time.o)
                0x000000000000b5d4                set_system_time

.text.CLOUD_setupTask
                0x000000000000b5e8       0x12
 .text.CLOUD_setupTask
                0x000000000000b5e8       0x12 build/default/production/mcc_generated_files/cloud/cloud_service.o
                0x000000000000b5e8                CLOUD_setupTask

.text.wifiHandlerTask
                0x000000000000b5fa       0x12
 .text.wifiHandlerTask
                0x000000000000b5fa       0x12 build/default/production/mcc_generated_files/cloud/wifi_service.o
                0x000000000000b5fa                wifiHandlerTask

.text.checkConnackTimeoutState
                0x000000000000b60c       0x12
 .text.checkConnackTimeoutState
                0x000000000000b60c       0x12 build/default/production/mcc_generated_files/mqtt/mqtt_core/mqtt_core.o

.text.checkSubackTimeoutState
                0x000000000000b61e       0x12
 .text.checkSubackTimeoutState
                0x000000000000b61e       0x12 build/default/production/mcc_generated_files/mqtt/mqtt_core/mqtt_core.o

.text.checkUnsubackTimeoutState
                0x000000000000b630       0x12
 .text.checkUnsubackTimeoutState
                0x000000000000b630       0x12 build/default/production/mcc_generated_files/mqtt/mqtt_core/mqtt_core.o

.text.BSD_GetSocketState
                0x000000000000b642       0x12
 .text.BSD_GetSocketState
                0x000000000000b642       0x12 build/default/production/mcc_generated_files/mqtt/mqtt_winc_adapter.o
                0x000000000000b642                BSD_GetSocketState

.text.I2C0_DO_IDLE
                0x000000000000b654       0x12
 .text.I2C0_DO_IDLE
                0x000000000000b654       0x12 build/default/production/mcc_generated_files/src/twi0_master.o

.text.I2C0_MasterResetBus
                0x000000000000b666       0x12
 .text.I2C0_MasterResetBus
                0x000000000000b666       0x12 build/default/production/mcc_generated_files/src/twi0_master.o
                0x000000000000b666                I2C0_MasterResetBus

.text.winc_adapter_init
                0x000000000000b678       0x12
 .text.winc_adapter_init
                0x000000000000b678       0x12 build/default/production/mcc_generated_files/winc/driver/winc_adapter.o
                0x000000000000b678                winc_adapter_init

.text.m2m_ssl_ecc_process_done
                0x000000000000b68a       0x12
 .text.m2m_ssl_ecc_process_done
                0x000000000000b68a       0x12 build/default/production/mcc_generated_files/winc/m2m/m2m_ssl.o
                0x000000000000b68a                m2m_ssl_ecc_process_done

.text.m2m_wifi_default_connect
                0x000000000000b69c       0x12
 .text.m2m_wifi_default_connect
                0x000000000000b69c       0x12 build/default/production/mcc_generated_files/winc/m2m/m2m_wifi.o
                0x000000000000b69c                m2m_wifi_default_connect

.text.m2m_wifi_disconnect
                0x000000000000b6ae       0x12
 .text.m2m_wifi_disconnect
                0x000000000000b6ae       0x12 build/default/production/mcc_generated_files/winc/m2m/m2m_wifi.o
                0x000000000000b6ae                m2m_wifi_disconnect

.text.m2m_wifi_get_system_time
                0x000000000000b6c0       0x12
 .text.m2m_wifi_get_system_time
                0x000000000000b6c0       0x12 build/default/production/mcc_generated_files/winc/m2m/m2m_wifi.o
                0x000000000000b6c0                m2m_wifi_get_system_time

.text.registerSocketCallback
                0x000000000000b6d2       0x12
 .text.registerSocketCallback
                0x000000000000b6d2       0x12 build/default/production/mcc_generated_files/winc/socket/socket.o
                0x000000000000b6d2                registerSocketCallback

.text.TIME_getCurrent
                0x000000000000b6e4       0x12
 .text.TIME_getCurrent
                0x000000000000b6e4       0x12 build/default/production/mcc_generated_files/time_service.o
                0x000000000000b6e4                TIME_getCurrent

.text.TIME_setStamp
                0x000000000000b6f6       0x12
 .text.TIME_setStamp
                0x000000000000b6f6       0x12 build/default/production/mcc_generated_files/time_service.o
                0x000000000000b6f6                TIME_setStamp

.text.TIME_getStamp
                0x000000000000b708       0x12
 .text.TIME_getStamp
                0x000000000000b708       0x12 build/default/production/mcc_generated_files/time_service.o
                0x000000000000b708                TIME_getStamp

.text.avrlibc   0x000000000000b71a       0x12
 .text.avrlibc  0x000000000000b71a       0x12 c:/program files/microchip/xc8/v2.31/avr/bin/../lib/gcc/avr/5.4.0/../../../../avr/lib/avrxmega3\libc.a(memcpy.o)
                0x000000000000b71a                memcpy

.text.avrlibc   0x000000000000b72c       0x12
 .text.avrlibc  0x000000000000b72c       0x12 c:/program files/microchip/xc8/v2.31/avr/bin/../lib/gcc/avr/5.4.0/../../../../avr/lib/avrxmega3\libc.a(strcmp.o)
                0x000000000000b72c                strcmp

.text.avrlibc   0x000000000000b73e       0x12
 .text.avrlibc  0x000000000000b73e       0x12 c:/program files/microchip/xc8/v2.31/avr/bin/../lib/gcc/avr/5.4.0/../../../../avr/lib/avrxmega3\libc.a(vprintf.o)
                0x000000000000b73e                vprintf

.text.CLOUD_isConnected
                0x000000000000b750       0x10
 .text.CLOUD_isConnected
                0x000000000000b750       0x10 build/default/production/mcc_generated_files/cloud/aws_cloud_service.o
                0x000000000000b750                CLOUD_isConnected

.text.atcab_lock_data_slot
                0x000000000000b760       0x10
 .text.atcab_lock_data_slot
                0x000000000000b760       0x10 build/default/production/mcc_generated_files/CryptoAuthenticationLibrary/basic/atca_basic_lock.o
                0x000000000000b760                atcab_lock_data_slot

.text.atcab_genkey
                0x000000000000b770       0x10
 .text.atcab_genkey
                0x000000000000b770       0x10 build/default/production/mcc_generated_files/CryptoAuthenticationLibrary/basic/atca_basic_genkey.o
                0x000000000000b770                atcab_genkey

.text.hal_iface_release
                0x000000000000b780       0x10
 .text.hal_iface_release
                0x000000000000b780       0x10 build/default/production/mcc_generated_files/CryptoAuthenticationLibrary/hal/atca_hal.o
                0x000000000000b780                hal_iface_release

.text.MQTT_ExchangeBufferInit
                0x000000000000b790       0x10
 .text.MQTT_ExchangeBufferInit
                0x000000000000b790       0x10 build/default/production/mcc_generated_files/mqtt/mqtt_exchange_buffer/mqtt_exchange_buffer.o
                0x000000000000b790                MQTT_ExchangeBufferInit

.text.winc_bus_init
                0x000000000000b7a0       0x10
 .text.winc_bus_init
                0x000000000000b7a0       0x10 build/default/production/mcc_generated_files/winc/driver/winc_spi.o
                0x000000000000b7a0                winc_bus_init

.text.winc_bus_reset
                0x000000000000b7b0       0x10
 .text.winc_bus_reset
                0x000000000000b7b0       0x10 build/default/production/mcc_generated_files/winc/driver/winc_spi.o
                0x000000000000b7b0                winc_bus_reset

.text.winc_interrupt_handler
                0x000000000000b7c0       0x10
 .text.winc_interrupt_handler
                0x000000000000b7c0       0x10 build/default/production/mcc_generated_files/winc/driver/winc_adapter.o

.text.debug_setPrefix
                0x000000000000b7d0       0x10
 .text.debug_setPrefix
                0x000000000000b7d0       0x10 build/default/production/mcc_generated_files/debug_print.o
                0x000000000000b7d0                debug_setPrefix

.text.SLPCTRL_Initialize
                0x000000000000b7e0       0x10
 .text.SLPCTRL_Initialize
                0x000000000000b7e0       0x10 build/default/production/mcc_generated_files/mcc.o
                0x000000000000b7e0                SLPCTRL_Initialize

.text.WDT_Initialize
                0x000000000000b7f0       0x10
 .text.WDT_Initialize
                0x000000000000b7f0       0x10 build/default/production/mcc_generated_files/mcc.o
                0x000000000000b7f0                WDT_Initialize

.text.libgcc.div
                0x000000000000b800       0x10
 .text.libgcc.div
                0x000000000000b800       0x10 c:/program files/microchip/xc8/v2.31/avr/bin/../lib/gcc/avr/5.4.0/avrxmega3\libgcc.a(_negsi2.o)
                0x000000000000b800                __negsi2

.text.CLOUD_isDisconnected
                0x000000000000b810        0xe
 .text.CLOUD_isDisconnected
                0x000000000000b810        0xe build/default/production/mcc_generated_files/cloud/aws_cloud_service.o
                0x000000000000b810                CLOUD_isDisconnected

.text.hal_i2c_init
                0x000000000000b81e        0xe
 .text.hal_i2c_init
                0x000000000000b81e        0xe build/default/production/mcc_generated_files/CryptoAuthenticationLibrary/hal/atca_i2c_hal.o
                0x000000000000b81e                hal_i2c_init

.text.atsend    0x000000000000b82c        0xe
 .text.atsend   0x000000000000b82c        0xe build/default/production/mcc_generated_files/CryptoAuthenticationLibrary/atca_iface.o
                0x000000000000b82c                atsend

.text.atreceive
                0x000000000000b83a        0xe
 .text.atreceive
                0x000000000000b83a        0xe build/default/production/mcc_generated_files/CryptoAuthenticationLibrary/atca_iface.o
                0x000000000000b83a                atreceive

.text.USART2_IsTxReady
                0x000000000000b848        0xe
 .text.USART2_IsTxReady
                0x000000000000b848        0xe build/default/production/mcc_generated_files/src/usart2.o
                0x000000000000b848                USART2_IsTxReady

.text.USART2_IsRxReady
                0x000000000000b856        0xe
 .text.USART2_IsRxReady
                0x000000000000b856        0xe build/default/production/mcc_generated_files/src/usart2.o
                0x000000000000b856                USART2_IsRxReady

.rodata.gHifCallbacks
                0x000000000080f864        0xe load address 0x000000000000b864
 .rodata.gHifCallbacks
                0x000000000080f864        0xe build/default/production/mcc_generated_files/winc/driver/winc_hif.o

.text.winc_adapter_interrupt_request_pending
                0x000000000000b872        0xe
 .text.winc_adapter_interrupt_request_pending
                0x000000000000b872        0xe build/default/production/mcc_generated_files/winc/driver/winc_adapter.o
                0x000000000000b872                winc_adapter_interrupt_request_pending

.text.libgcc.mul
                0x000000000000b880        0xe
 .text.libgcc.mul
                0x000000000000b880        0xe c:/program files/microchip/xc8/v2.31/avr/bin/../lib/gcc/avr/5.4.0/avrxmega3\libgcc.a(_usmulhisi3.o)
                0x000000000000b880                __usmulhisi3
                0x000000000000b884                __usmulhisi3_tail

.text.avrlibc   0x000000000000b88e        0xe
 .text.avrlibc  0x000000000000b88e        0xe c:/program files/microchip/xc8/v2.31/avr/bin/../lib/gcc/avr/5.4.0/../../../../avr/lib/avrxmega3\libc.a(strcpy.o)
                0x000000000000b88e                strcpy

.text.CLOUD_publishData
                0x000000000000b89c        0xc
 .text.CLOUD_publishData
                0x000000000000b89c        0xc build/default/production/mcc_generated_files/cloud/cloud_service.o
                0x000000000000b89c                CLOUD_publishData

.text.CLOUD_checkIsConnected
                0x000000000000b8a8        0xc
 .text.CLOUD_checkIsConnected
                0x000000000000b8a8        0xc build/default/production/mcc_generated_files/cloud/cloud_service.o
                0x000000000000b8a8                CLOUD_checkIsConnected

.text.atcab_lock_config_zone
                0x000000000000b8b4        0xc
 .text.atcab_lock_config_zone
                0x000000000000b8b4        0xc build/default/production/mcc_generated_files/CryptoAuthenticationLibrary/basic/atca_basic_lock.o
                0x000000000000b8b4                atcab_lock_config_zone

.text.atcab_lock_data_zone
                0x000000000000b8c0        0xc
 .text.atcab_lock_data_zone
                0x000000000000b8c0        0xc build/default/production/mcc_generated_files/CryptoAuthenticationLibrary/basic/atca_basic_lock.o
                0x000000000000b8c0                atcab_lock_data_zone

.text.I2C0_SetDataCompleteCallback
                0x000000000000b8cc        0xc
 .text.I2C0_SetDataCompleteCallback
                0x000000000000b8cc        0xc build/default/production/mcc_generated_files/src/twi0_master.o
                0x000000000000b8cc                I2C0_SetDataCompleteCallback

.text.I2C0_SetAddressNackCallback
                0x000000000000b8d8        0xc
 .text.I2C0_SetAddressNackCallback
                0x000000000000b8d8        0xc build/default/production/mcc_generated_files/src/twi0_master.o
                0x000000000000b8d8                I2C0_SetAddressNackCallback

.text.I2C0_MasterEnableIrq
                0x000000000000b8e4        0xc
 .text.I2C0_MasterEnableIrq
                0x000000000000b8e4        0xc build/default/production/mcc_generated_files/src/twi0_master.o
                0x000000000000b8e4                I2C0_MasterEnableIrq

.text.I2C0_MasterDisableIrq
                0x000000000000b8f0        0xc
 .text.I2C0_MasterDisableIrq
                0x000000000000b8f0        0xc build/default/production/mcc_generated_files/src/twi0_master.o
                0x000000000000b8f0                I2C0_MasterDisableIrq

.text.I2C0_MasterClearIrq
                0x000000000000b8fc        0xc
 .text.I2C0_MasterClearIrq
                0x000000000000b8fc        0xc build/default/production/mcc_generated_files/src/twi0_master.o
                0x000000000000b8fc                I2C0_MasterClearIrq

.text.I2C0_MasterBusErrorOverride
                0x000000000000b908        0xc
 .text.I2C0_MasterBusErrorOverride
                0x000000000000b908        0xc build/default/production/mcc_generated_files/src/twi0_master.o
                0x000000000000b908                I2C0_MasterBusErrorOverride

.text.I2C0_MasterArbitrationlostOverride
                0x000000000000b914        0xc
 .text.I2C0_MasterArbitrationlostOverride
                0x000000000000b914        0xc build/default/production/mcc_generated_files/src/twi0_master.o
                0x000000000000b914                I2C0_MasterArbitrationlostOverride

.text.I2C0_MasterIsRxOrTx
                0x000000000000b920        0xc
 .text.I2C0_MasterIsRxOrTx
                0x000000000000b920        0xc build/default/production/mcc_generated_files/src/twi0_master.o
                0x000000000000b920                I2C0_MasterIsRxOrTx

.text.I2C0_MasterStop
                0x000000000000b92c        0xc
 .text.I2C0_MasterStop
                0x000000000000b92c        0xc build/default/production/mcc_generated_files/src/twi0_master.o
                0x000000000000b92c                I2C0_MasterStop

.text.I2C0_MasterSendAck
                0x000000000000b938        0xc
 .text.I2C0_MasterSendAck
                0x000000000000b938        0xc build/default/production/mcc_generated_files/src/twi0_master.o
                0x000000000000b938                I2C0_MasterSendAck

.text.I2C0_MasterSendNack
                0x000000000000b944        0xc
 .text.I2C0_MasterSendNack
                0x000000000000b944        0xc build/default/production/mcc_generated_files/src/twi0_master.o
                0x000000000000b944                I2C0_MasterSendNack

.text.USART2_IsTxDone
                0x000000000000b950        0xc
 .text.USART2_IsTxDone
                0x000000000000b950        0xc build/default/production/mcc_generated_files/src/usart2.o
                0x000000000000b950                USART2_IsTxDone

.text.RTC_EnableOVFInterrupt
                0x000000000000b95c        0xc
 .text.RTC_EnableOVFInterrupt
                0x000000000000b95c        0xc build/default/production/mcc_generated_files/src/rtc.o
                0x000000000000b95c                RTC_EnableOVFInterrupt

.text.RTC_DisableOVFInterrupt
                0x000000000000b968        0xc
 .text.RTC_DisableOVFInterrupt
                0x000000000000b968        0xc build/default/production/mcc_generated_files/src/rtc.o
                0x000000000000b968                RTC_DisableOVFInterrupt

.text.RTC_ClearOVFInterruptFlag
                0x000000000000b974        0xc
 .text.RTC_ClearOVFInterruptFlag
                0x000000000000b974        0xc build/default/production/mcc_generated_files/src/rtc.o
                0x000000000000b974                RTC_ClearOVFInterruptFlag

.text.RTC_IsOVFInterruptEnabled
                0x000000000000b980        0xc
 .text.RTC_IsOVFInterruptEnabled
                0x000000000000b980        0xc build/default/production/mcc_generated_files/src/rtc.o
                0x000000000000b980                RTC_IsOVFInterruptEnabled

.text.winc_hif_init
                0x000000000000b98c        0xc
 .text.winc_hif_init
                0x000000000000b98c        0xc build/default/production/mcc_generated_files/winc/driver/winc_hif.o
                0x000000000000b98c                winc_hif_init

.text.OLED_Command
                0x000000000000b998        0xc
 .text.OLED_Command
                0x000000000000b998        0xc build/default/production/mcc_generated_files/application_manager.o
                0x000000000000b998                OLED_Command

.text.CLI_setdeviceId
                0x000000000000b9a4        0xa
 .text.CLI_setdeviceId
                0x000000000000b9a4        0xa build/default/production/mcc_generated_files/cli/cli.o
                0x000000000000b9a4                CLI_setdeviceId

.text.MQTT_SetPublishReceptionHandlerTable
                0x000000000000b9ae        0xa
 .text.MQTT_SetPublishReceptionHandlerTable
                0x000000000000b9ae        0xa build/default/production/mcc_generated_files/cloud/mqtt_service.o
                0x000000000000b9ae                MQTT_SetPublishReceptionHandlerTable

.text.timeout_initialize
                0x000000000000b9b8        0xa
 .text.timeout_initialize
                0x000000000000b9b8        0xa build/default/production/mcc_generated_files/drivers/timeout.o
                0x000000000000b9b8                timeout_initialize

.text.MQTT_LastSentSize
                0x000000000000b9c2        0xa
 .text.MQTT_LastSentSize
                0x000000000000b9c2        0xa build/default/production/mcc_generated_files/mqtt/mqtt_comm_bsd/mqtt_comm_layer.o
                0x000000000000b9c2                MQTT_LastSentSize

.text.MQTT_GetLastReceivedLength
                0x000000000000b9cc        0xa
 .text.MQTT_GetLastReceivedLength
                0x000000000000b9cc        0xa build/default/production/mcc_generated_files/mqtt/mqtt_core/mqtt_core.o
                0x000000000000b9cc                MQTT_GetLastReceivedLength

.text.BSD_SetRecvHandlerTable
                0x000000000000b9d6        0xa
 .text.BSD_SetRecvHandlerTable
                0x000000000000b9d6        0xa build/default/production/mcc_generated_files/mqtt/mqtt_winc_adapter.o
                0x000000000000b9d6                BSD_SetRecvHandlerTable

.text.MQTT_SetPublishReceptionCallback
                0x000000000000b9e0        0xa
 .text.MQTT_SetPublishReceptionCallback
                0x000000000000b9e0        0xa build/default/production/mcc_generated_files/mqtt/mqtt_packetTransfer_interface.o
                0x000000000000b9e0                MQTT_SetPublishReceptionCallback

.text.MQTT_GetPublishReceptionCallback
                0x000000000000b9ea        0xa
 .text.MQTT_GetPublishReceptionCallback
                0x000000000000b9ea        0xa build/default/production/mcc_generated_files/mqtt/mqtt_packetTransfer_interface.o
                0x000000000000b9ea                MQTT_GetPublishReceptionCallback

.text.I2C0_MasterIsNack
                0x000000000000b9f4        0xa
 .text.I2C0_MasterIsNack
                0x000000000000b9f4        0xa build/default/production/mcc_generated_files/src/twi0_master.o
                0x000000000000b9f4                I2C0_MasterIsNack

.text.USART2_SetRXISRCb
                0x000000000000b9fe        0xa
 .text.USART2_SetRXISRCb
                0x000000000000b9fe        0xa build/default/production/mcc_generated_files/src/usart2.o
                0x000000000000b9fe                USART2_SetRXISRCb

.text.USART2_SetTXISRCb
                0x000000000000ba08        0xa
 .text.USART2_SetTXISRCb
                0x000000000000ba08        0xa build/default/production/mcc_generated_files/src/usart2.o
                0x000000000000ba08                USART2_SetTXISRCb

.text.USART2_printCHAR
                0x000000000000ba12        0xa
 .text.USART2_printCHAR
                0x000000000000ba12        0xa build/default/production/mcc_generated_files/src/usart2.o
                0x000000000000ba12                USART2_printCHAR

.text.PORTF_INT_SetInterruptHandler
                0x000000000000ba1c        0xa
 .text.PORTF_INT_SetInterruptHandler
                0x000000000000ba1c        0xa build/default/production/mcc_generated_files/src/pin_manager.o
                0x000000000000ba1c                PORTF_INT_SetInterruptHandler

.text.RTC_SetOVFIsrCallback
                0x000000000000ba26        0xa
 .text.RTC_SetOVFIsrCallback
                0x000000000000ba26        0xa build/default/production/mcc_generated_files/src/rtc.o
                0x000000000000ba26                RTC_SetOVFIsrCallback

.text.RTC_ReadCounter
                0x000000000000ba30        0xa
 .text.RTC_ReadCounter
                0x000000000000ba30        0xa build/default/production/mcc_generated_files/src/rtc.o
                0x000000000000ba30                RTC_ReadCounter

.text.winc_bus_deinit
                0x000000000000ba3a        0xa
 .text.winc_bus_deinit
                0x000000000000ba3a        0xa build/default/production/mcc_generated_files/winc/driver/winc_spi.o
                0x000000000000ba3a                winc_bus_deinit

.text.debug_init
                0x000000000000ba44        0xa
 .text.debug_init
                0x000000000000ba44        0xa build/default/production/mcc_generated_files/debug_print.o
                0x000000000000ba44                debug_init

.rodata.severity_strings
                0x000000000080fa4e        0xa load address 0x000000000000ba4e
 .rodata.severity_strings
                0x000000000080fa4e        0xa build/default/production/mcc_generated_files/debug_print.o

.text.wifiConnectionStateChanged
                0x000000000000ba58        0xa
 .text.wifiConnectionStateChanged
                0x000000000000ba58        0xa build/default/production/mcc_generated_files/application_manager.o

.text.OLED_write
                0x000000000000ba62        0xa
 .text.OLED_write
                0x000000000000ba62        0xa build/default/production/mcc_generated_files/application_manager.o
                0x000000000000ba62                OLED_write

.text.main      0x000000000000ba6c        0xa
 .text.main     0x000000000000ba6c        0xa build/default/production/main.o
                0x000000000000ba6c                main

.text.avrlibc   0x000000000000ba76        0xa
 .text.avrlibc  0x000000000000ba76        0xa c:/program files/microchip/xc8/v2.31/avr/bin/../lib/gcc/avr/5.4.0/../../../../avr/lib/avrxmega3\libc.a(strtok.o)
                0x000000000000ba76                strtok

.text           0x000000000000ba80        0xa
 .text          0x000000000000ba80        0xa c:/program files/microchip/xc8/v2.31/avr/bin/../lib/gcc/avr/5.4.0/../../../../avr/lib/avrxmega3\libc.a(difftime.o)
                0x000000000000ba80                difftime

.rodata.u8CmdBuf.3406
                0x000000000080fa8a        0x9 load address 0x000000000000ba8a
 .rodata.u8CmdBuf.3406
                0x000000000080fa8a        0x9 build/default/production/mcc_generated_files/winc/driver/winc_spi.o

.text.atgetifacecfg
                0x000000000000ba94        0x8
 .text.atgetifacecfg
                0x000000000000ba94        0x8 build/default/production/mcc_generated_files/CryptoAuthenticationLibrary/atca_iface.o
                0x000000000000ba94                atgetifacecfg

.text.WINC_open
                0x000000000000ba9c        0x8
 .text.WINC_open
                0x000000000000ba9c        0x8 build/default/production/mcc_generated_files/drivers/spi_master.o
                0x000000000000ba9c                WINC_open

.text.BSD_htons
                0x000000000000baa4        0x8
 .text.BSD_htons
                0x000000000000baa4        0x8 build/default/production/mcc_generated_files/mqtt/mqtt_winc_adapter.o
                0x000000000000baa4                BSD_htons

.text.protected_write_io
                0x000000000000baac        0x8
 .text.protected_write_io
                0x000000000000baac        0x8 build/default/production/mcc_generated_files/src/protected_io.o
                0x000000000000baac                protected_write_io

.text.I2C0_MasterRead
                0x000000000000bab4        0x8
 .text.I2C0_MasterRead
                0x000000000000bab4        0x8 build/default/production/mcc_generated_files/src/twi0_master.o
                0x000000000000bab4                I2C0_MasterRead

.text.I2C0_MasterWrite
                0x000000000000babc        0x8
 .text.I2C0_MasterWrite
                0x000000000000babc        0x8 build/default/production/mcc_generated_files/src/twi0_master.o
                0x000000000000babc                I2C0_MasterWrite

.text.I2C0_DO_TX_ACK
                0x000000000000bac4        0x8
 .text.I2C0_DO_TX_ACK
                0x000000000000bac4        0x8 build/default/production/mcc_generated_files/src/twi0_master.o

.text.I2C0_DO_RX_ACK
                0x000000000000bacc        0x8
 .text.I2C0_DO_RX_ACK
                0x000000000000bacc        0x8 build/default/production/mcc_generated_files/src/twi0_master.o

.text.I2C0_DO_RX_NACK_RESTART
                0x000000000000bad4        0x8
 .text.I2C0_DO_RX_NACK_RESTART
                0x000000000000bad4        0x8 build/default/production/mcc_generated_files/src/twi0_master.o

.text.winc_adapter_reset_assert
                0x000000000000badc        0x8
 .text.winc_adapter_reset_assert
                0x000000000000badc        0x8 build/default/production/mcc_generated_files/winc/driver/winc_adapter.o
                0x000000000000badc                winc_adapter_reset_assert

.text.winc_adapter_reset_deassert
                0x000000000000bae4        0x8
 .text.winc_adapter_reset_deassert
                0x000000000000bae4        0x8 build/default/production/mcc_generated_files/winc/driver/winc_adapter.o
                0x000000000000bae4                winc_adapter_reset_deassert

.rodata.level_strings
                0x000000000080faec        0x8 load address 0x000000000000baec
 .rodata.level_strings
                0x000000000080faec        0x8 build/default/production/mcc_generated_files/debug_print.o

.text.avrlibc   0x000000000000baf4        0x8
 .text.avrlibc  0x000000000000baf4        0x8 c:/program files/microchip/xc8/v2.31/avr/bin/../lib/gcc/avr/5.4.0/../../../../avr/lib/avrxmega3\libc.a(atoi_M.o)
                0x000000000000baf4                atoi

.text.MQTT_CLIENT_receive
                0x000000000000bafc        0x6
 .text.MQTT_CLIENT_receive
                0x000000000000bafc        0x6 build/default/production/mcc_generated_files/cloud/mqtt_service.o
                0x000000000000bafc                MQTT_CLIENT_receive

.text.CLOUD_publish
                0x000000000000bb02        0x6
 .text.CLOUD_publish
                0x000000000000bb02        0x6 build/default/production/mcc_generated_files/cloud/aws_cloud_service.o
                0x000000000000bb02                CLOUD_publish

.text.MQTT_GetClientConnectionInfo
                0x000000000000bb08        0x6
 .text.MQTT_GetClientConnectionInfo
                0x000000000000bb08        0x6 build/default/production/mcc_generated_files/mqtt/mqtt_comm_bsd/mqtt_comm_layer.o
                0x000000000000bb08                MQTT_GetClientConnectionInfo

.text.MQTT_initialiseState
                0x000000000000bb0e        0x6
 .text.MQTT_initialiseState
                0x000000000000bb0e        0x6 build/default/production/mcc_generated_files/mqtt/mqtt_core/mqtt_core.o
                0x000000000000bb0e                MQTT_initialiseState

.text.MQTT_GetConnectionState
                0x000000000000bb14        0x6
 .text.MQTT_GetConnectionState
                0x000000000000bb14        0x6 build/default/production/mcc_generated_files/mqtt/mqtt_core/mqtt_core.o
                0x000000000000bb14                MQTT_GetConnectionState

.text.MQTT_GetLastHandlerState
                0x000000000000bb1a        0x6
 .text.MQTT_GetLastHandlerState
                0x000000000000bb1a        0x6 build/default/production/mcc_generated_files/mqtt/mqtt_core/mqtt_core.o
                0x000000000000bb1a                MQTT_GetLastHandlerState

.text.MQTT_GetLastReceivedPacketHeader
                0x000000000000bb20        0x6
 .text.MQTT_GetLastReceivedPacketHeader
                0x000000000000bb20        0x6 build/default/production/mcc_generated_files/mqtt/mqtt_core/mqtt_core.o
                0x000000000000bb20                MQTT_GetLastReceivedPacketHeader

.text.I2C0_DO_SEND_RESTART
                0x000000000000bb26        0x6
 .text.I2C0_DO_SEND_RESTART
                0x000000000000bb26        0x6 build/default/production/mcc_generated_files/src/twi0_master.o

.text.I2C0_DO_SEND_RESTART_READ
                0x000000000000bb2c        0x6
 .text.I2C0_DO_SEND_RESTART_READ
                0x000000000000bb2c        0x6 build/default/production/mcc_generated_files/src/twi0_master.o

.text.I2C0_DO_SEND_RESTART_WRITE
                0x000000000000bb32        0x6
 .text.I2C0_DO_SEND_RESTART_WRITE
                0x000000000000bb32        0x6 build/default/production/mcc_generated_files/src/twi0_master.o

.text.SPI0_Close
                0x000000000000bb38        0x6
 .text.SPI0_Close
                0x000000000000bb38        0x6 build/default/production/mcc_generated_files/src/spi0.o
                0x000000000000bb38                SPI0_Close

.text.SPI0_WriteByte
                0x000000000000bb3e        0x6
 .text.SPI0_WriteByte
                0x000000000000bb3e        0x6 build/default/production/mcc_generated_files/src/spi0.o
                0x000000000000bb3e                SPI0_WriteByte

.text.SPI0_ReadByte
                0x000000000000bb44        0x6
 .text.SPI0_ReadByte
                0x000000000000bb44        0x6 build/default/production/mcc_generated_files/src/spi0.o
                0x000000000000bb44                SPI0_ReadByte

.text.winc_hif_deinit
                0x000000000000bb4a        0x6
 .text.winc_hif_deinit
                0x000000000000bb4a        0x6 build/default/production/mcc_generated_files/winc/driver/winc_hif.o
                0x000000000000bb4a                winc_hif_deinit

.text.winc_bus_error
                0x000000000000bb50        0x6
 .text.winc_bus_error
                0x000000000000bb50        0x6 build/default/production/mcc_generated_files/winc/driver/winc_spi.o
                0x000000000000bb50                winc_bus_error

.text.m2m_wifi_handle_events
                0x000000000000bb56        0x6
 .text.m2m_wifi_handle_events
                0x000000000000bb56        0x6 build/default/production/mcc_generated_files/winc/m2m/m2m_wifi.o
                0x000000000000bb56                m2m_wifi_handle_events

.text.debug_setSeverity
                0x000000000000bb5c        0x6
 .text.debug_setSeverity
                0x000000000000bb5c        0x6 build/default/production/mcc_generated_files/debug_print.o
                0x000000000000bb5c                debug_setSeverity

.text.runScheduler
                0x000000000000bb62        0x6
 .text.runScheduler
                0x000000000000bb62        0x6 build/default/production/mcc_generated_files/application_manager.o
                0x000000000000bb62                runScheduler

.text.TIME_getDiffTime
                0x000000000000bb68        0x6
 .text.TIME_getDiffTime
                0x000000000000bb68        0x6 build/default/production/mcc_generated_files/time_service.o
                0x000000000000bb68                TIME_getDiffTime

.rodata.u8CmdBuf.3410
                0x000000000080fb6e        0x5 load address 0x000000000000bb6e
 .rodata.u8CmdBuf.3410
                0x000000000080fb6e        0x5 build/default/production/mcc_generated_files/winc/driver/winc_spi.o

.text           0x000000000000bb74        0x4
 .text          0x000000000000bb74        0x4 C:/Program Files/Microchip/MPLABX/v5.45/packs/Microchip/ATmega_DFP/2.2.108/xc8/avr/lib/avrxmega3/crtatmega4808.o
                0x000000000000bb74                __vector_28
                0x000000000000bb74                __vector_1
                0x000000000000bb74                __vector_34
                0x000000000000bb74                __vector_24
                0x000000000000bb74                __vector_12
                0x000000000000bb74                __bad_interrupt
                0x000000000000bb74                __vector_6
                0x000000000000bb74                __vector_35
                0x000000000000bb74                __vector_30
                0x000000000000bb74                __vector_25
                0x000000000000bb74                __vector_11
                0x000000000000bb74                __vector_13
                0x000000000000bb74                __vector_17
                0x000000000000bb74                __vector_19
                0x000000000000bb74                __vector_7
                0x000000000000bb74                __vector_27
                0x000000000000bb74                __vector_5
                0x000000000000bb74                __vector_9
                0x000000000000bb74                __vector_21
                0x000000000000bb74                __vector_8
                0x000000000000bb74                __vector_26
                0x000000000000bb74                __vector_14
                0x000000000000bb74                __vector_10
                0x000000000000bb74                __vector_16
                0x000000000000bb74                __vector_18
                0x000000000000bb74                __vector_20

.text.hal_i2c_post_init
                0x000000000000bb78        0x4
 .text.hal_i2c_post_init
                0x000000000000bb78        0x4 build/default/production/mcc_generated_files/CryptoAuthenticationLibrary/hal/atca_i2c_hal.o
                0x000000000000bb78                hal_i2c_post_init

.text.hal_i2c_release
                0x000000000000bb7c        0x4
 .text.hal_i2c_release
                0x000000000000bb7c        0x4 build/default/production/mcc_generated_files/CryptoAuthenticationLibrary/hal/atca_i2c_hal.o
                0x000000000000bb7c                hal_i2c_release

.text.I2C0_RETURN_STOP
                0x000000000000bb80        0x4
 .text.I2C0_RETURN_STOP
                0x000000000000bb80        0x4 build/default/production/mcc_generated_files/src/twi0_master.o

.text.I2C0_RETURN_RESET
                0x000000000000bb84        0x4
 .text.I2C0_RETURN_RESET
                0x000000000000bb84        0x4 build/default/production/mcc_generated_files/src/twi0_master.o

.text.I2C0_SetRestartWriteCallback
                0x000000000000bb88        0x4
 .text.I2C0_SetRestartWriteCallback
                0x000000000000bb88        0x4 build/default/production/mcc_generated_files/src/twi0_master.o
                0x000000000000bb88                I2C0_SetRestartWriteCallback

.text.winc_adapter_deinit
                0x000000000000bb8c        0x4
 .text.winc_adapter_deinit
                0x000000000000bb8c        0x4 build/default/production/mcc_generated_files/winc/driver/winc_adapter.o
                0x000000000000bb8c                winc_adapter_deinit

.text.winc_adapter_spi_open
                0x000000000000bb90        0x4
 .text.winc_adapter_spi_open
                0x000000000000bb90        0x4 build/default/production/mcc_generated_files/winc/driver/winc_adapter.o
                0x000000000000bb90                winc_adapter_spi_open

.text.winc_adapter_spi_close
                0x000000000000bb94        0x4
 .text.winc_adapter_spi_close
                0x000000000000bb94        0x4 build/default/production/mcc_generated_files/winc/driver/winc_adapter.o
                0x000000000000bb94                winc_adapter_spi_close

.text.PORTF_SW0_DefaultInterruptHandler
                0x000000000000bb98        0x2
 .text.PORTF_SW0_DefaultInterruptHandler
                0x000000000000bb98        0x2 build/default/production/mcc_generated_files/src/pin_manager.o
                0x000000000000bb98                PORTF_SW0_DefaultInterruptHandler

.text.PORTF_PF1_DefaultInterruptHandler
                0x000000000000bb9a        0x2
 .text.PORTF_PF1_DefaultInterruptHandler
                0x000000000000bb9a        0x2 build/default/production/mcc_generated_files/src/pin_manager.o
                0x000000000000bb9a                PORTF_PF1_DefaultInterruptHandler

.text.PORTF_PF0_DefaultInterruptHandler
                0x000000000000bb9c        0x2
 .text.PORTF_PF0_DefaultInterruptHandler
                0x000000000000bb9c        0x2 build/default/production/mcc_generated_files/src/pin_manager.o
                0x000000000000bb9c                PORTF_PF0_DefaultInterruptHandler

.text.PORTF_PF3_DefaultInterruptHandler
                0x000000000000bb9e        0x2
 .text.PORTF_PF3_DefaultInterruptHandler
                0x000000000000bb9e        0x2 build/default/production/mcc_generated_files/src/pin_manager.o
                0x000000000000bb9e                PORTF_PF3_DefaultInterruptHandler

.text.PORTF_INT_DefaultInterruptHandler
                0x000000000000bba0        0x2
 .text.PORTF_INT_DefaultInterruptHandler
                0x000000000000bba0        0x2 build/default/production/mcc_generated_files/src/pin_manager.o
                0x000000000000bba0                PORTF_INT_DefaultInterruptHandler

.text.PORTF_SW1_DefaultInterruptHandler
                0x000000000000bba2        0x2
 .text.PORTF_SW1_DefaultInterruptHandler
                0x000000000000bba2        0x2 build/default/production/mcc_generated_files/src/pin_manager.o
                0x000000000000bba2                PORTF_SW1_DefaultInterruptHandler

.text.PORTF_WAKE_DefaultInterruptHandler
                0x000000000000bba4        0x2
 .text.PORTF_WAKE_DefaultInterruptHandler
                0x000000000000bba4        0x2 build/default/production/mcc_generated_files/src/pin_manager.o
                0x000000000000bba4                PORTF_WAKE_DefaultInterruptHandler

.text.hif_null_cb
                0x000000000000bba6        0x2
 .text.hif_null_cb
                0x000000000000bba6        0x2 build/default/production/mcc_generated_files/winc/driver/winc_hif.o

.text.winc_adapter_chip_enable_assert
                0x000000000000bba8        0x2
 .text.winc_adapter_chip_enable_assert
                0x000000000000bba8        0x2 build/default/production/mcc_generated_files/winc/driver/winc_adapter.o
                0x000000000000bba8                winc_adapter_chip_enable_assert

.text.winc_adapter_chip_enable_deassert
                0x000000000000bbaa        0x2
 .text.winc_adapter_chip_enable_deassert
                0x000000000000bbaa        0x2 build/default/production/mcc_generated_files/winc/driver/winc_adapter.o
                0x000000000000bbaa                winc_adapter_chip_enable_deassert

.text.m2m_ssl_stop_processing_certs
                0x000000000000bbac        0x2
 .text.m2m_ssl_stop_processing_certs
                0x000000000000bbac        0x2 build/default/production/mcc_generated_files/winc/m2m/m2m_ssl.o
                0x000000000000bbac                m2m_ssl_stop_processing_certs

.data.WiFiCbTable
                0x000000000080333f       0x2d load address 0x000000000000bbae
 .data.WiFiCbTable
                0x000000000080333f       0x2d build/default/production/mcc_generated_files/winc/m2m/m2m_wifi.o

.data.I2C0_fsmStateTable
                0x000000000080336c       0x24 load address 0x000000000000bbdb
 .data.I2C0_fsmStateTable
                0x000000000080336c       0x24 build/default/production/mcc_generated_files/src/twi0_master.o
                0x000000000080336c                I2C0_fsmStateTable

.data.cfg_ateccx08a_i2c_custom
                0x00000000008033d1       0x18 load address 0x000000000000bbff
 .data.cfg_ateccx08a_i2c_custom
                0x00000000008033d1       0x18 build/default/production/mcc_generated_files/cloud/crypto_client/crypto_client.o
                0x00000000008033d1                cfg_ateccx08a_i2c_custom

.data.secureCfg
                0x00000000008033e9       0x18 load address 0x000000000000bc17
 .data.secureCfg
                0x00000000008033e9       0x18 build/default/production/mcc_generated_files/CryptoAuth_init.o
                0x00000000008033e9                secureCfg

.data.gacHttpProvDomainName.5011
                0x0000000000803401       0x15 load address 0x000000000000bc2f
 .data.gacHttpProvDomainName.5011
                0x0000000000803401       0x15 build/default/production/mcc_generated_files/cloud/wifi_service.o

.data.debug_message_prefix
                0x0000000000803416       0x14 load address 0x000000000000bc44
 .data.debug_message_prefix
                0x0000000000803416       0x14 build/default/production/mcc_generated_files/debug_print.o

.data.attDeviceID
                0x000000000080342a       0x14 load address 0x000000000000bc58
 .data.attDeviceID
                0x000000000080342a       0x14 build/default/production/mcc_generated_files/application_manager.o
                0x000000000080342a                attDeviceID

.data.cloudContext
                0x0000000000803450       0x10 load address 0x000000000000bc6c
 .data.cloudContext
                0x0000000000803450       0x10 build/default/production/mcc_generated_files/cloud/cloud_service.o
                0x0000000000803450                cloudContext

.data.USART2_stream
                0x000000000080347e        0xe load address 0x000000000000bc7c
 .data.USART2_stream
                0x000000000080347e        0xe build/default/production/mcc_generated_files/src/usart2.o
                0x000000000080347e                USART2_stream

.data.CLI_task_timer
                0x0000000000803499        0xa load address 0x000000000000bc8a
 .data.CLI_task_timer
                0x0000000000803499        0xa build/default/production/mcc_generated_files/cli/cli.o
                0x0000000000803499                CLI_task_timer

.data.cloudResetTaskTimer
                0x00000000008034a3        0xa load address 0x000000000000bc94
 .data.cloudResetTaskTimer
                0x00000000008034a3        0xa build/default/production/mcc_generated_files/cloud/cloud_service.o
                0x00000000008034a3                cloudResetTaskTimer

.data.mqttTimeoutTaskTimer
                0x00000000008034ad        0xa load address 0x000000000000bc9e
 .data.mqttTimeoutTaskTimer
                0x00000000008034ad        0xa build/default/production/mcc_generated_files/cloud/cloud_service.o
                0x00000000008034ad                mqttTimeoutTaskTimer

.data.cloudTaskTimer
                0x00000000008034b7        0xa load address 0x000000000000bca8
 .data.cloudTaskTimer
                0x00000000008034b7        0xa build/default/production/mcc_generated_files/cloud/cloud_service.o
                0x00000000008034b7                cloudTaskTimer

.data.checkBackTimer
                0x00000000008034c1        0xa load address 0x000000000000bcb2
 .data.checkBackTimer
                0x00000000008034c1        0xa build/default/production/mcc_generated_files/cloud/wifi_service.o
                0x00000000008034c1                checkBackTimer

.data.wifiHandlerTimer
                0x00000000008034cb        0xa load address 0x000000000000bcbc
 .data.wifiHandlerTimer
                0x00000000008034cb        0xa build/default/production/mcc_generated_files/cloud/wifi_service.o
                0x00000000008034cb                wifiHandlerTimer

.data.ntpTimeFetchTimer
                0x00000000008034d5        0xa load address 0x000000000000bcc6
 .data.ntpTimeFetchTimer
                0x00000000008034d5        0xa build/default/production/mcc_generated_files/cloud/wifi_service.o
                0x00000000008034d5                ntpTimeFetchTimer

.data.softApConnectTimer
                0x00000000008034df        0xa load address 0x000000000000bcd0
 .data.softApConnectTimer
                0x00000000008034df        0xa build/default/production/mcc_generated_files/cloud/wifi_service.o
                0x00000000008034df                softApConnectTimer

.data.unsubackTimer
                0x00000000008034e9        0xa load address 0x000000000000bcda
 .data.unsubackTimer
                0x00000000008034e9        0xa build/default/production/mcc_generated_files/mqtt/mqtt_core/mqtt_core.o
                0x00000000008034e9                unsubackTimer

.data.subackTimer
                0x00000000008034f3        0xa load address 0x000000000000bce4
 .data.subackTimer
                0x00000000008034f3        0xa build/default/production/mcc_generated_files/mqtt/mqtt_core/mqtt_core.o
                0x00000000008034f3                subackTimer

.data.pingrespTimer
                0x00000000008034fd        0xa load address 0x000000000000bcee
 .data.pingrespTimer
                0x00000000008034fd        0xa build/default/production/mcc_generated_files/mqtt/mqtt_core/mqtt_core.o
                0x00000000008034fd                pingrespTimer

.data.pingreqTimer
                0x0000000000803507        0xa load address 0x000000000000bcf8
 .data.pingreqTimer
                0x0000000000803507        0xa build/default/production/mcc_generated_files/mqtt/mqtt_core/mqtt_core.o
                0x0000000000803507                pingreqTimer

.data.connackTimer
                0x0000000000803511        0xa load address 0x000000000000bd02
 .data.connackTimer
                0x0000000000803511        0xa build/default/production/mcc_generated_files/mqtt/mqtt_core/mqtt_core.o
                0x0000000000803511                connackTimer

.data.initDeviceShadowTimer
                0x000000000080351b        0xa load address 0x000000000000bd0c
 .data.initDeviceShadowTimer
                0x000000000080351b        0xa build/default/production/mcc_generated_files/application_manager.o
                0x000000000080351b                initDeviceShadowTimer

.data.MAIN_dataTasksTimer
                0x0000000000803525        0xa load address 0x000000000000bd16
 .data.MAIN_dataTasksTimer
                0x0000000000803525        0xa build/default/production/mcc_generated_files/application_manager.o
                0x0000000000803525                MAIN_dataTasksTimer

.data.ledParameterRed
                0x000000000080357f        0x9 load address 0x000000000000bd20
 .data.ledParameterRed
                0x000000000080357f        0x9 build/default/production/mcc_generated_files/led.o
                0x000000000080357f                ledParameterRed

.data.ledParameterYellow
                0x0000000000803588        0x9 load address 0x000000000000bd29
 .data.ledParameterYellow
                0x0000000000803588        0x9 build/default/production/mcc_generated_files/led.o
                0x0000000000803588                ledParameterYellow

.data.ledParameterGreen
                0x0000000000803591        0x9 load address 0x000000000000bd32
 .data.ledParameterGreen
                0x0000000000803591        0x9 build/default/production/mcc_generated_files/led.o
                0x0000000000803591                ledParameterGreen

.data.ledParameterBlue
                0x000000000080359a        0x9 load address 0x000000000000bd3b
 .data.ledParameterBlue
                0x000000000080359a        0x9 build/default/production/mcc_generated_files/led.o
                0x000000000080359a                ledParameterBlue

.data.lastAge.5399
                0x00000000008035a7        0x4 load address 0x000000000000bd44
 .data.lastAge.5399
                0x00000000008035a7        0x4 build/default/production/mcc_generated_files/cloud/cloud_service.o

.data.spi0_configurations
                0x00000000008035b3        0x4 load address 0x000000000000bd48
 .data.spi0_configurations
                0x00000000008035b3        0x4 build/default/production/mcc_generated_files/src/spi0.o
                0x00000000008035b3                spi0_configurations

.data.USART2_tx_isr_cb
                0x00000000008035eb        0x2 load address 0x000000000000bd4c
 .data.USART2_tx_isr_cb
                0x00000000008035eb        0x2 build/default/production/mcc_generated_files/src/usart2.o
                0x00000000008035eb                USART2_tx_isr_cb

.data.USART2_rx_isr_cb
                0x00000000008035ed        0x2 load address 0x000000000000bd4e
 .data.USART2_rx_isr_cb
                0x00000000008035ed        0x2 build/default/production/mcc_generated_files/src/usart2.o
                0x00000000008035ed                USART2_rx_isr_cb

.data           0x0000000000803613        0x2 load address 0x000000000000bd50
 .data          0x0000000000803613        0x2 c:/program files/microchip/xc8/v2.31/avr/bin/../lib/gcc/avr/5.4.0/../../../../avr/lib/avrxmega3\libc.a(asc_store.o)
                0x0000000000803613                __asc_store
